Archive member included because of file (symbol)

cpu/s5p645x/libs5p645x.a(interrupts.o)
                              cpu/s5p645x/start.o (do_irq)
cpu/s5p645x/libs5p645x.a(cpu.o)
                              cpu/s5p645x/libs5p645x.a(interrupts.o) (reset_cpu)
cpu/s5p645x/libs5p645x.a(setup_hsmmc.o)
                              cpu/s5p645x/libs5p645x.a(cpu.o) (setup_hsmmc0_cfg_gpio)
cpu/s5p645x/libs5p645x.a(serial.o)
                              cpu/s5p645x/libs5p645x.a(cpu.o) (serial_tstc)
cpu/s5p645x/s5p6450/libs5p6450.a(speed.o)
                              cpu/s5p645x/libs5p645x.a(setup_hsmmc.o) (get_MPLL_CLK)
lib_arm/libarm.a(_udivsi3.o)  cpu/s5p645x/libs5p645x.a(interrupts.o) (__udivsi3)
lib_arm/libarm.a(board.o)     lib_arm/div0.o (hang)
lib_arm/libarm.a(_divsi3.o)   lib_arm/libarm.a(board.o) (__divsi3)
lib_arm/libarm.a(_modsi3.o)   lib_arm/libarm.a(board.o) (__modsi3)
net/libnet.a(net.o)           lib_arm/libarm.a(board.o) (copy_filename)
net/libnet.a(tftp.o)          net/libnet.a(net.o) (TftpStart)
net/libnet.a(bootp.o)         net/libnet.a(net.o) (BootpRequest)
net/libnet.a(rarp.o)          net/libnet.a(net.o) (RarpRequest)
net/libnet.a(eth.o)           lib_arm/libarm.a(board.o) (eth_initialize)
net/libnet.a(nfs.o)           net/libnet.a(net.o) (NfsStart)
drivers/mmc/libmmc.a(mmc.o)   cpu/s5p645x/movi.o (movi_write)
drivers/mmc/libmmc.a(s3c_hsmmc.o)
                              cpu/s5p645x/libs5p645x.a(cpu.o) (smdk_s3c_hsmmc_init)
drivers/mtd/nand/libnand.a(nand.o)
                              lib_arm/libarm.a(board.o) (nand_init)
drivers/mtd/nand/libnand.a(nand_base.o)
                              drivers/mtd/nand/libnand.a(nand.o) (nand_scan)
drivers/mtd/nand/libnand.a(nand_ids.o)
                              drivers/mtd/nand/libnand.a(nand_base.o) (nand_flash_ids)
drivers/mtd/nand/libnand.a(nand_ecc.o)
                              drivers/mtd/nand/libnand.a(nand_base.o) (nand_calculate_ecc)
drivers/mtd/nand/libnand.a(nand_bbt.o)
                              drivers/mtd/nand/libnand.a(nand_base.o) (nand_isbad_bbt)
drivers/net/libnet.a(dm9000x.o)
                              net/libnet.a(net.o) (eth_halt)
common/libcommon.a(main.o)    lib_arm/libarm.a(board.o) (main_loop)
common/libcommon.a(cmd_autoscript.o)
                              (__u_boot_cmd_autoscr)
common/libcommon.a(cmd_bdinfo.o)
                              (__u_boot_cmd_bdinfo)
common/libcommon.a(image.o)   common/libcommon.a(cmd_autoscript.o) (genimg_get_format)
common/libcommon.a(cmd_boot.o)
                              (__u_boot_cmd_go)
common/libcommon.a(cmd_bootm.o)
                              lib_arm/libarm.a(board.o) (load_addr)
common/libcommon.a(cmd_cache.o)
                              (__u_boot_cmd_icache)
common/libcommon.a(cmd_console.o)
                              (__u_boot_cmd_coninfo)
common/libcommon.a(cmd_date.o)
                              (__u_boot_cmd_date)
common/libcommon.a(cmd_elf.o)
                              common/libcommon.a(cmd_bootm.o) (do_bootvx)
common/libcommon.a(cmd_ext2.o)
                              (__u_boot_cmd_ext2ls)
common/libcommon.a(cmd_fat.o)
                              (__u_boot_cmd_fatload)
common/libcommon.a(cmd_flash.o)
                              (__u_boot_cmd_flinfo)
common/libcommon.a(cmd_itest.o)
                              (__u_boot_cmd_itest)
common/libcommon.a(cmd_load.o)
                              (__u_boot_cmd_loads)
common/libcommon.a(cmd_mem.o)
                              common/libcommon.a(cmd_itest.o) (cmd_get_data_size)
common/libcommon.a(cmd_misc.o)
                              (__u_boot_cmd_sleep)
common/libcommon.a(cmd_mmc.o)
                              (__u_boot_cmd_mmcinfo)
common/libcommon.a(cmd_nand.o)
                              (__u_boot_cmd_nand)
common/libcommon.a(cmd_net.o)
                              (__u_boot_cmd_bootp)
common/libcommon.a(cmd_nvedit.o)
                              lib_arm/libarm.a(board.o) (getenv_r)
common/libcommon.a(cmd_reginfo.o)
                              (__u_boot_cmd_reginfo)
common/libcommon.a(cmd_usbd.o)
                              (__u_boot_cmd_dnw)
common/libcommon.a(cmd_ximg.o)
                              (__u_boot_cmd_imxtract)
common/libcommon.a(command.o)
                              common/libcommon.a(main.o) (find_cmd)
common/libcommon.a(console.o)
                              cpu/s5p645x/movi.o (printf)
common/libcommon.a(devices.o)
                              common/libcommon.a(cmd_console.o) (devlist)
common/libcommon.a(dlmalloc.o)
                              drivers/mmc/libmmc.a(mmc.o) (free)
common/libcommon.a(env_common.o)
                              common/libcommon.a(cmd_nvedit.o) (env_get_addr)
common/libcommon.a(exports.o)
                              lib_arm/libarm.a(board.o) (jumptable_init)
common/libcommon.a(flash.o)   common/libcommon.a(cmd_load.o) (addr2info)
common/libcommon.a(hush.o)    common/libcommon.a(main.o) (u_boot_hush_start)
common/libcommon.a(lists.o)   common/libcommon.a(cmd_console.o) (ListGetPtrToItem)
common/libcommon.a(s_record.o)
                              common/libcommon.a(cmd_load.o) (srec_decode)
common/libcommon.a(usb.o)     common/libcommon.a(cmd_bootm.o) (usb_stop)
common/libcommon.a(xyzModem.o)
                              common/libcommon.a(cmd_load.o) (xyzModem_error)
common/libcommon.a(cmd_movi.o)
                              cpu/s5p645x/movi.o (raw_area_control)
common/libcommon.a(cmd_lcd.o)
                              (__u_boot_cmd_lcd)
common/libcommon.a(cmd_fastboot.o)
                              (__u_boot_cmd_fastboot)
common/libcommon.a(cmd_mmc_fdisk.o)
                              common/libcommon.a(cmd_fastboot.o) (get_mmc_part_info)
common/libcommon.a(env_auto.o)
                              common/libcommon.a(env_common.o) (env_get_char_spec)
common/libcommon.a(gunzip.o)  common/libcommon.a(cmd_bootm.o) (gunzip)
common/libcommon.a(crc16.o)   common/libcommon.a(xyzModem.o) (cyg_crc16)
board/samsung/smdk6450/libsmdk6450.a(smdk6450.o)
                              lib_arm/libarm.a(board.o) (board_init)
board/samsung/smdk6450/libsmdk6450.a(flash.o)
                              common/libcommon.a(flash.o) (write_buff)
lib_generic/libgeneric.a(crc32.o)
                              common/libcommon.a(image.o) (crc32)
lib_generic/libgeneric.a(ctype.o)
                              common/libcommon.a(hush.o) (_ctype)
lib_generic/libgeneric.a(display_options.o)
                              lib_arm/libarm.a(board.o) (print_size)
lib_generic/libgeneric.a(lmb.o)
                              common/libcommon.a(cmd_bootm.o) (lmb_init)
lib_generic/libgeneric.a(string.o)
                              net/libnet.a(net.o) (strcpy)
lib_generic/libgeneric.a(vsprintf.o)
                              lib_arm/libarm.a(board.o) (simple_strtoul)
lib_generic/libgeneric.a(zlib.o)
                              common/libcommon.a(gunzip.o) (inflateEnd)
cpu/s5p645x/libs5p645x.a(usb_ohci.o)
                              common/libcommon.a(usb.o) (submit_control_msg)
cpu/s5p645x/libs5p645x.a(nand.o)
                              drivers/mtd/nand/libnand.a(nand.o) (board_nand_init)
cpu/s5p645x/libs5p645x.a(usbd-otg-hs.o)
                              common/libcommon.a(cmd_usbd.o) (s3c_usbc_activate)
cpu/s5p645x/libs5p645x.a(fastboot.o)
                              common/libcommon.a(cmd_fastboot.o) (fastboot_shutdown)
lib_arm/libarm.a(_ashldi3.o)  drivers/mtd/nand/libnand.a(nand_bbt.o) (__ashldi3)
lib_arm/libarm.a(_ashrdi3.o)  drivers/mtd/nand/libnand.a(nand_base.o) (__ashrdi3)
lib_arm/libarm.a(_umodsi3.o)  net/libnet.a(tftp.o) (__umodsi3)
lib_arm/libarm.a(bootm.o)     common/libcommon.a(cmd_bootm.o) (do_bootm_linux)
lib_arm/libarm.a(cache.o)     common/libcommon.a(cmd_elf.o) (flush_cache)
fs/fat/libfat.a(fat.o)        common/libcommon.a(cmd_fat.o) (file_fat_detectfs)
fs/ext2/libext2fs.a(ext2fs.o)
                              common/libcommon.a(cmd_ext2.o) (ext2fs_format)
fs/ext2/libext2fs.a(dev.o)    fs/ext2/libext2fs.a(ext2fs.o) (ext2fs_devread)
disk/libdisk.a(part.o)        fs/fat/libfat.a(fat.o) (dev_print)
disk/libdisk.a(part_dos.o)    disk/libdisk.a(part.o) (test_part_dos)
drivers/mtd/nand/libnand.a(nand_util.o)
                              common/libcommon.a(cmd_nand.o) (nand_lock)
drivers/rtc/librtc.a(date.o)  common/libcommon.a(cmd_date.o) (GregorianDay)
drivers/rtc/librtc.a(s5p64xx_rtc.o)
                              common/libcommon.a(cmd_date.o) (rtc_set)
lib_generic/libgeneric.a(div64.o)
                              drivers/mtd/nand/libnand.a(nand_util.o) (__div64_32)

Memory Configuration

Name             Origin             Length             Attributes
*default*        0x00000000         0xffffffff

Linker script and memory map

                0x00000000                . = 0x0
                0x00000000                . = ALIGN (0x4)

.text           0xc7e00000    0x31050
 cpu/s5p645x/start.o(.text)
 .text          0xc7e00000      0x4a0 cpu/s5p645x/start.o
                0xc7e00040                _end_vect
                0xc7e00184                theLastJump
                0xc7e00480                arm1136_cache_flush
                0xc7e0004c                _bss_start
                0xc7e00050                _bss_end
                0xc7e00048                _armboot_start
                0xc7e00128                copy_from_nand
                0xc7e00000                _start
                0xc7e000c0                after_copy
 cpu/s5p645x/start_irom.o(.text)
 .text          0xc7e004a0       0xa4 cpu/s5p645x/start_irom.o
                0xc7e004a4                load_bl2_irom
 cpu/s5p645x/s5p6450/cpu_init.o(.text)
 .text          0xc7e00544       0xf8 cpu/s5p645x/s5p6450/cpu_init.o
                0xc7e00544                mem_ctrl_asm_init
 board/samsung/smdk6450/lowlevel_init.o(.text)
 .text          0xc7e0063c      0x300 board/samsung/smdk6450/lowlevel_init.o
                0xc7e00640                lowlevel_init
                0xc7e00850                nand_asm_init
 cpu/s5p645x/nand_cp.o(.text)
 .text          0xc7e0093c      0x1e4 cpu/s5p645x/nand_cp.o
                0xc7e009fc                copy_uboot_to_ram
                0xc7e0093c                nand_bl2_copy
                0xc7e0099c                nand_bl2_copy_adv
 cpu/s5p645x/movi.o(.text)
 .text          0xc7e00b20       0xc4 cpu/s5p645x/movi.o
                0xc7e00bcc                print_movi_bl2_info
                0xc7e00b44                movi_write_bl1
                0xc7e00b20                movi_bl2_copy
                0xc7e00bb4                movi_read_env
                0xc7e00b9c                movi_write_env
 *(.text)
 .text          0xc7e00be4        0x4 lib_arm/div0.o
                0xc7e00be4                __div0
 .text          0xc7e00be8      0x4dc cpu/s5p645x/libs5p645x.a(interrupts.o)
                0xc7e00c68                set_timer
                0xc7e01008                reset_timer
                0xc7e00f30                do_fiq
                0xc7e00bf4                interrupt_init
                0xc7e00fe4                do_undefined_instruction
                0xc7e00db4                show_regs
                0xc7e00f0c                do_irq
                0xc7e00d9c                get_tbclk
                0xc7e00d00                get_timer
                0xc7e00c78                reset_timer_masked
                0xc7e00ef0                bad_mode
                0xc7e00ca0                get_timer_masked
                0xc7e01030                udelay
                0xc7e00d14                udelay_masked
                0xc7e00f9c                do_prefetch_abort
                0xc7e00d88                get_ticks
                0xc7e00bec                disable_interrupts
                0xc7e00f54                do_not_used
                0xc7e00f78                do_data_abort
                0xc7e00fc0                do_software_interrupt
                0xc7e00be8                enable_interrupts
 .text          0xc7e010c4      0x188 cpu/s5p645x/libs5p645x.a(cpu.o)
                0xc7e0110c                cleanup_before_linux
                0xc7e010f8                cpu_mmc_init
                0xc7e01214                dcache_enable
                0xc7e010f0                cpu_init
                0xc7e01174                icache_enable
                0xc7e011dc                branch_enable
                0xc7e0115c                do_reset
                0xc7e011c0                branch_disable
                0xc7e01138                reset_cpu
                0xc7e01190                branch_status
                0xc7e01230                icache_disable
                0xc7e011a0                dcache_status
                0xc7e011b0                icache_status
                0xc7e011f8                dcache_disable
 .text          0xc7e0124c      0x218 cpu/s5p645x/libs5p645x.a(setup_hsmmc.o)
                0xc7e0124c                setup_sdhci0_cfg_card
                0xc7e01280                setup_hsmmc0_cfg_gpio
                0xc7e012fc                setup_hsmmc_clock
 .text          0xc7e01464       0x8c cpu/s5p645x/libs5p645x.a(serial.o)
                0xc7e01464                serial_setbrg
                0xc7e01494                serial_tstc
                0xc7e01468                serial_putc
                0xc7e014e8                serial_init
                0xc7e014a8                serial_puts
                0xc7e014cc                serial_getc
 .text          0xc7e014f0      0x194 cpu/s5p645x/s5p6450/libs5p6450.a(speed.o)
                0xc7e0159c                get_HCLK
                0xc7e015c4                get_PCLK
                0xc7e0155c                get_MPLL_CLK
                0xc7e0156c                get_FCLK
                0xc7e01574                get_ARMCLK
                0xc7e01564                get_UCLK
                0xc7e015ec                print_cpuinfo
 .text          0xc7e01684       0x98 lib_arm/libarm.a(_udivsi3.o)
                0xc7e01684                __udivsi3
 .text          0xc7e0171c      0x3d8 lib_arm/libarm.a(board.o)
                0xc7e01780                __yellow_LED_off
                0xc7e01774                green_LED_on
                0xc7e01784                hang
                0xc7e01774                __green_LED_on
                0xc7e0177c                __yellow_LED_on
                0xc7e0177c                yellow_LED_on
                0xc7e01778                __green_LED_off
                0xc7e01770                __red_LED_off
                0xc7e01844                start_armboot
                0xc7e01a8c                strmhz
                0xc7e01768                coloured_LED_init
                0xc7e01780                yellow_LED_off
                0xc7e01770                red_LED_off
                0xc7e0171c                sbrk
                0xc7e01778                green_LED_off
                0xc7e01768                __coloured_LED_init
                0xc7e0176c                red_LED_on
                0xc7e0176c                __red_LED_on
 *fill*         0xc7e01af4        0xc 00
 .text          0xc7e01b00      0x140 lib_arm/libarm.a(_divsi3.o)
                0xc7e01b00                __divsi3
 .text          0xc7e01c40      0x100 lib_arm/libarm.a(_modsi3.o)
                0xc7e01c40                __modsi3
 .text          0xc7e01d40     0x1530 net/libnet.a(net.o)
                0xc7e01f2c                getenv_IPaddr
                0xc7e01dec                NetCksumOk
                0xc7e02b14                NetSetTimeout
                0xc7e01e10                copy_filename
                0xc7e01f3c                NetEthHdrSize
                0xc7e01fe0                ip_to_string
                0xc7e02d60                ArpTimeoutCheck
                0xc7e023b4                NetReceive
                0xc7e01eb8                string_to_ip
                0xc7e02b50                NetSendUDPPacket
                0xc7e0202c                print_IPaddr
                0xc7e02050                NetSetEther
                0xc7e02de4                NetLoop
                0xc7e02290                ArpRequest
                0xc7e01f80                VLAN_to_string
                0xc7e01ea8                getenv_VLAN
                0xc7e01da8                NetCksum
                0xc7e02108                NetSetIP
                0xc7e01e60                string_to_VLAN
                0xc7e02ce0                NetStartAgain
                0xc7e01d98                NetSetHandler
                0xc7e0298c                PingSend
                0xc7e0228c                NetSendPacket
 .text          0xc7e03270      0x7bc net/libnet.a(tftp.o)
                0xc7e03444                TftpStart
 .text          0xc7e03a2c      0xa3c net/libnet.a(bootp.o)
                0xc7e0409c                DhcpRequest
                0xc7e03ec4                BootpRequest
 .text          0xc7e04468      0x1a8 net/libnet.a(rarp.o)
                0xc7e04468                RarpRequest
 .text          0xc7e04610        0x8 net/libnet.a(eth.o)
                0xc7e04610                eth_initialize
 .text          0xc7e04618      0xe04 net/libnet.a(nfs.o)
                0xc7e04c20                NfsStart
 .text          0xc7e0541c     0x1220 drivers/mmc/libmmc.a(mmc.o)
                0xc7e05484                mmc_send_ext_csd
                0xc7e05634                sd_switch
                0xc7e062b4                mmc_send_app_op_cond
                0xc7e05c88                mmc_startup
                0xc7e065c8                print_mmc_devices
                0xc7e057c0                board_mmc_init
                0xc7e0544c                mmc_set_blocklen
                0xc7e0543c                mmc_send_cmd
                0xc7e056b4                mmc_set_clock
                0xc7e064a8                mmc_init
                0xc7e054d4                mmc_set_relative_addr
                0xc7e063fc                mmc_send_op_cond
                0xc7e05758                mmc_register
                0xc7e05814                mmc_get_dev
                0xc7e0550c                mmc_switch
                0xc7e056a4                mmc_set_ios
                0xc7e05a9c                movi_read
                0xc7e0555c                mmc_change_freq
                0xc7e056d4                mmc_set_bus_width
                0xc7e057c8                find_mmc_device
                0xc7e063a8                mmc_go_idle
                0xc7e056dc                mmc_send_if_cond
                0xc7e05ab4                sd_change_freq
                0xc7e058e4                movi_write
                0xc7e0650c                mmc_initialize
 .text          0xc7e0663c      0x5d4 drivers/mmc/libmmc.a(s3c_hsmmc.o)
                0xc7e0672c                smdk_s3c_hsmmc_init
 .text          0xc7e06c10       0xa0 drivers/mtd/nand/libnand.a(nand.o)
                0xc7e06c10                nand_init
 .text          0xc7e06cb0     0x3054 drivers/mtd/nand/libnand.a(nand_base.o)
                0xc7e08fa8                nand_read
                0xc7e06ecc                nand_wait_ready
                0xc7e079b8                nand_scan_ident
                0xc7e083e8                nand_scan
                0xc7e09448                nand_erase_nand
                0xc7e07f04                nand_scan_tail
                0xc7e07990                nand_release
 .text          0xc7e09d04        0x0 drivers/mtd/nand/libnand.a(nand_ids.o)
 .text          0xc7e09d04      0x220 drivers/mtd/nand/libnand.a(nand_ecc.o)
                0xc7e09dfc                nand_correct_data
                0xc7e09d04                nand_calculate_ecc
 .text          0xc7e09f24     0x1750 drivers/mtd/nand/libnand.a(nand_bbt.o)
                0xc7e0a1b0                nand_isbad_bbt
                0xc7e0b59c                nand_default_bbt
                0xc7e0ae3c                nand_update_bbt
                0xc7e0b118                nand_scan_bbt
 .text          0xc7e0b674      0xc10 drivers/net/libnet.a(dm9000x.o)
                0xc7e0ba40                eth_halt
                0xc7e0b8b4                read_srom_word
                0xc7e0b9d8                write_srom_word
                0xc7e0c048                eth_rx
                0xc7e0ba88                eth_init
                0xc7e0c1ac                eth_send
 .text          0xc7e0c284      0xde4 common/libcommon.a(main.o)
                0xc7e0c284                __show_boot_progress
                0xc7e0c388                run_command
                0xc7e0c314                do_run
                0xc7e0c288                parse_line
                0xc7e0cefc                readline
                0xc7e0c284                show_boot_progress
                0xc7e0cf08                main_loop
                0xc7e0c85c                readline_into_buffer
 .text          0xc7e0d068      0x190 common/libcommon.a(cmd_autoscript.o)
                0xc7e0d1b4                do_autoscript
                0xc7e0d088                autoscript
 .text          0xc7e0d1f8      0x100 common/libcommon.a(cmd_bdinfo.o)
                0xc7e0d20c                do_bdinfo
 .text          0xc7e0d2f8      0x800 common/libcommon.a(image.o)
                0xc7e0d57c                getenv_bootm_size
                0xc7e0d634                image_print_contents
                0xc7e0d41c                genimg_get_comp_id
                0xc7e0d464                genimg_get_os_id
                0xc7e0d3c8                genimg_has_config
                0xc7e0d44c                genimg_get_arch_id
                0xc7e0d37c                genimg_get_arch_name
                0xc7e0d894                boot_get_ramdisk
                0xc7e0d840                image_check_hcrc
                0xc7e0d364                genimg_get_os_name
                0xc7e0d394                genimg_get_type_name
                0xc7e0d53c                genimg_get_format
                0xc7e0d3ac                genimg_get_comp_name
                0xc7e0d804                image_check_dcrc
                0xc7e0d5b0                getenv_bootm_low
                0xc7e0d3c4                genimg_get_image
                0xc7e0d434                genimg_get_type_id
                0xc7e0d318                image_multi_count
                0xc7e0d578                memmove_wd
                0xc7e0d47c                image_multi_getimg
                0xc7e0d5e4                getenv_yesno
 .text          0xc7e0daf8       0xa4 common/libcommon.a(cmd_boot.o)
                0xc7e0db10                do_go
                0xc7e0daf8                do_go_exec
 .text          0xc7e0db9c      0xd30 common/libcommon.a(cmd_bootm.o)
                0xc7e0dcc4                print_image_hdr
                0xc7e0e124                do_bootd
                0xc7e0e148                do_bootm
                0xc7e0dbbc                board_lmb_reserve
                0xc7e0dbbc                __board_lmb_reserve
                0xc7e0e0c4                do_iminfo
 .text          0xc7e0e8cc      0x144 common/libcommon.a(cmd_cache.o)
                0xc7e0e908                do_dcache
                0xc7e0e98c                do_icache
 .text          0xc7e0ea10       0xe0 common/libcommon.a(cmd_console.o)
                0xc7e0ea10                do_coninfo
 .text          0xc7e0eaf0      0x324 common/libcommon.a(cmd_date.o)
                0xc7e0ed00                do_date
                0xc7e0eb34                mk_date
 .text          0xc7e0ee14      0x3c8 common/libcommon.a(cmd_elf.o)
                0xc7e0f13c                do_bootelf
                0xc7e0ef7c                do_bootvx
                0xc7e0ee14                valid_elf_image
                0xc7e0f0f8                do_bootelf_exec
                0xc7e0ee6c                load_elf_image
 .text          0xc7e0f1dc      0x558 common/libcommon.a(cmd_ext2.o)
                0xc7e0f1dc                ext_format
                0xc7e0f2d0                do_ext3_format
                0xc7e0f5e4                do_ext2ls
                0xc7e0f2e0                do_ext2_format
                0xc7e0f2f0                do_ext2load
 .text          0xc7e0f734      0x4ac common/libcommon.a(cmd_fat.o)
                0xc7e0fa40                do_fat_fsload
                0xc7e0f734                do_fat_format
                0xc7e0f824                do_fat_fsinfo
                0xc7e0f92c                do_fat_ls
 .text          0xc7e0fbe0      0x5a8 common/libcommon.a(cmd_flash.o)
                0xc7e0fc10                do_flinfo
                0xc7e0fbf8                flash_sect_erase
                0xc7e0fe70                do_protect
                0xc7e1003c                do_flerase
                0xc7e0fbe0                flash_sect_protect
 .text          0xc7e10188      0x2ec common/libcommon.a(cmd_itest.o)
                0xc7e101f0                binary_test
                0xc7e103cc                do_itest
 .text          0xc7e10474      0xf58 common/libcommon.a(cmd_load.o)
                0xc7e10544                k_data_init
                0xc7e106d0                s1_sendpacket
                0xc7e106f8                handle_send_packet
                0xc7e105d0                k_data_restore
                0xc7e108f0                send_nack
                0xc7e109d8                do_load_serial_bin
                0xc7e10634                k_data_char
                0xc7e1049c                chk1
                0xc7e1056c                k_data_save
                0xc7e10474                ktrans
                0xc7e1069c                send_pad
                0xc7e10954                send_ack
                0xc7e110c0                do_load_serial
 .text          0xc7e113cc      0xa14 common/libcommon.a(cmd_mem.o)
                0xc7e113cc                do_mem_base
                0xc7e11c0c                do_mem_mw
                0xc7e11410                do_mem_crc
                0xc7e117e8                do_mem_nm
                0xc7e11810                do_mem_mm
                0xc7e11930                do_mem_cp
                0xc7e114c8                do_mem_mtest
                0xc7e11a60                do_mem_cmp
                0xc7e115f0                cmd_get_data_size
                0xc7e11838                do_mem_loop
                0xc7e11cdc                do_mem_md
 .text          0xc7e11de0       0x90 common/libcommon.a(cmd_misc.o)
                0xc7e11de0                do_sleep
 .text          0xc7e11e70      0x48c common/libcommon.a(cmd_mmc.o)
                0xc7e11ff4                do_mmcops
                0xc7e11e70                do_mmcinfo
 .text          0xc7e122fc      0xf98 common/libcommon.a(cmd_nand.o)
                0xc7e12464                do_nandboot
                0xc7e126a0                do_nand
 .text          0xc7e13294      0x3d8 common/libcommon.a(cmd_net.o)
                0xc7e13648                do_rarpb
                0xc7e13294                do_ping
                0xc7e13654                do_tftpb
                0xc7e1363c                do_dhcp
                0xc7e13660                do_bootp
                0xc7e13630                do_nfs
 .text          0xc7e1366c      0x890 common/libcommon.a(cmd_nvedit.o)
                0xc7e137b0                getenv
                0xc7e13820                _do_setenv
                0xc7e136cc                getenv_r
                0xc7e13d80                do_printenv
                0xc7e13d38                setenv
                0xc7e13784                do_saveenv
                0xc7e13cf8                do_setenv
                0xc7e1366c                envmatch
 .text          0xc7e13efc        0x8 common/libcommon.a(cmd_reginfo.o)
                0xc7e13efc                do_reginfo
 .text          0xc7e13f04      0x118 common/libcommon.a(cmd_usbd.o)
                0xc7e13f04                do_usbd_dnw
 .text          0xc7e1401c      0x240 common/libcommon.a(cmd_ximg.o)
                0xc7e1401c                do_imgextract
 .text          0xc7e1425c      0x764 common/libcommon.a(command.o)
                0xc7e142f0                do_echo
                0xc7e14540                do_exit
                0xc7e1425c                find_cmd
                0xc7e14570                do_test
                0xc7e14374                do_help
                0xc7e14520                do_version
 .text          0xc7e149c0      0x584 common/libcommon.a(console.o)
                0xc7e14cc0                console_init_r
                0xc7e14c80                printf
                0xc7e14b60                console_assign
                0xc7e14ed0                getc
                0xc7e14c38                puts
                0xc7e14b44                dbg
                0xc7e14e58                serial_printf
                0xc7e14a88                ftstc
                0xc7e14bf0                fprintf
                0xc7e14eb8                tstc
                0xc7e14c54                vprintf
                0xc7e14ee8                ctrlc
                0xc7e14e98                putc
                0xc7e14b08                disable_ctrlc
                0xc7e14a60                fgetc
                0xc7e14b20                had_ctrlc
                0xc7e14ab0                fputc
                0xc7e14b50                console_init_f
                0xc7e14b30                clear_ctrlc
                0xc7e14adc                fputs
 .text          0xc7e14f44       0xec common/libcommon.a(devices.o)
                0xc7e14f60                device_register
                0xc7e14f44                devices_done
                0xc7e14f84                devices_init
 .text          0xc7e15030     0x10f0 common/libcommon.a(dlmalloc.o)
                0xc7e15458                malloc
                0xc7e15ba4                pvalloc
                0xc7e15bc8                calloc
                0xc7e15068                malloc_usable_size
                0xc7e15ca8                realloc
                0xc7e15120                malloc_trim
                0xc7e15030                malloc_bin_reloc
                0xc7e150ac                mallopt
                0xc7e15a94                memalign
                0xc7e15454                cfree
                0xc7e15bbc                valloc
                0xc7e151f4                free
 .text          0xc7e16120      0x164 common/libcommon.a(env_common.o)
                0xc7e16234                env_get_char
                0xc7e16140                env_get_addr
                0xc7e1618c                set_default_env
                0xc7e161d4                env_relocate
                0xc7e16160                env_crc_update
                0xc7e16120                env_get_char_memory
 .text          0xc7e16284       0xe4 common/libcommon.a(exports.o)
                0xc7e16290                jumptable_init
                0xc7e16288                get_version
 .text          0xc7e16368      0x364 common/libcommon.a(flash.o)
                0xc7e1655c                flash_write
                0xc7e16368                flash_protect
                0xc7e16474                addr2info
                0xc7e1647c                flash_perror
 .text          0xc7e166cc     0x1c98 common/libcommon.a(hush.o)
                0xc7e16a68                new_pipe
                0xc7e167f4                mapset
                0xc7e17a60                parse_string_outer
                0xc7e173c0                update_ifs_map
                0xc7e17a18                parse_file_outer
                0xc7e166e8                simple_itoa
                0xc7e16dac                reserved_word
                0xc7e16818                u_boot_hush_start
 .text          0xc7e18364      0x3e0 common/libcommon.a(lists.o)
                0xc7e18664                DisposeHandle
                0xc7e18684                ListDispose
                0xc7e18498                ListInsertItems
                0xc7e1836c                ListSetAllocationPolicy
                0xc7e183bc                ListGetItemSize
                0xc7e183b0                ListGetDataPtr
                0xc7e18688                NewHandle
                0xc7e1841c                SetHandleSize
                0xc7e1865c                ListInsertItem
                0xc7e18364                GetHandleSize
                0xc7e183c8                ListNumItems
                0xc7e18380                ListGetPtrToItem
                0xc7e186e4                ListCreate
                0xc7e183d4                ListGetItems
 .text          0xc7e18744      0x2cc common/libcommon.a(s_record.o)
                0xc7e187b4                srec_decode
 .text          0xc7e18a10     0x15e4 common/libcommon.a(usb.o)
                0xc7e194e0                usb_set_idle
                0xc7e18a28                usb_maxpacket
                0xc7e19dc8                usb_hub_probe
                0xc7e19fc4                usb_stop
                0xc7e19f30                usb_init
                0xc7e18a10                usb_disable_asynch
                0xc7e19e8c                usb_clear_halt
                0xc7e18d94                usb_bulk_msg
                0xc7e193f0                usb_get_class_descriptor
                0xc7e19e28                usb_scan_devices
                0xc7e19108                usb_get_hub_descriptor
                0xc7e18ef4                usb_get_port_status
                0xc7e18d70                usb_submit_int_msg
                0xc7e18c1c                usb_parse_config
                0xc7e18df4                usb_control_msg
                0xc7e19544                usb_set_protocol
                0xc7e19a68                usb_hub_port_connect_change
                0xc7e1960c                usb_set_interface
                0xc7e18b38                usb_hub_allocate
                0xc7e192f4                usb_string
                0xc7e19468                usb_get_report
                0xc7e19720                usb_get_descriptor
                0xc7e19ba8                usb_hub_configure
                0xc7e19168                usb_get_string
                0xc7e18d74                wait_ms
                0xc7e190b0                usb_clear_hub_feature
                0xc7e19790                usb_get_configuration_no
                0xc7e19050                usb_clear_port_feature
                0xc7e18fac                usb_set_port_feature
                0xc7e19830                usb_new_device
                0xc7e18f54                usb_get_hub_status
                0xc7e195a4                usb_set_configuration
                0xc7e18a4c                usb_set_maxpacket
                0xc7e196d8                usb_set_address
                0xc7e18b80                usb_alloc_new_device
                0xc7e18b24                usb_hub_reset
                0xc7e18afc                usb_get_dev_index
 .text          0xc7e19ff4      0xa10 common/libcommon.a(xyzModem.o)
                0xc7e1a128                xyzModem_error
                0xc7e1a1c4                xyzModem_stream_close
                0xc7e1a224                CYGACC_COMM_IF_GETC_TIMEOUT
                0xc7e19ff4                parse_num
                0xc7e1a2ac                xyzModem_stream_terminate
                0xc7e1a8a8                xyzModem_stream_open
                0xc7e1a218                CYGACC_COMM_IF_PUTC
                0xc7e1a62c                xyzModem_stream_read
 .text          0xc7e1aa04      0x538 common/libcommon.a(cmd_movi.o)
                0xc7e1ad8c                init_raw_area_table
                0xc7e1aa04                do_movi
 .text          0xc7e1af3c      0x3f4 common/libcommon.a(cmd_lcd.o)
                0xc7e1af3c                do_lcd_test
 .text          0xc7e1b330     0x1824 common/libcommon.a(cmd_fastboot.o)
                0xc7e1c7bc                do_sdfuse
                0xc7e1b384                fastboot_flash_get_ptn_count
                0xc7e1b4ec                fastboot_flash_add_ptn
                0xc7e1c9a8                do_fastboot
                0xc7e1b35c                fastboot_flash_get_ptn
                0xc7e1b394                fastboot_flash_find_ptn
                0xc7e1b40c                fastboot_flash_dump_ptn
 .text          0xc7e1cb54      0xb70 common/libcommon.a(cmd_mmc_fdisk.o)
                0xc7e1ccd8                make_partitionInfo
                0xc7e1d27c                encode_partitionInfo
                0xc7e1d00c                decode_partitionInfo
                0xc7e1cbc0                encode_chs
                0xc7e1d04c                get_mmc_part_info
                0xc7e1d2f0                make_mmc_partition
                0xc7e1d0e8                print_mmc_part_info
                0xc7e1d5c4                create_mmc_fdisk
                0xc7e1cbe0                get_SDInfo
                0xc7e1d64c                do_fdisk
                0xc7e1cf44                get_mmc_mbr
                0xc7e1ced0                put_mmc_mbr
                0xc7e1cb54                calc_unit
                0xc7e1cfb4                get_mmc_block_count
 .text          0xc7e1d6c4      0x74c common/libcommon.a(env_auto.o)
                0xc7e1d810                env_relocate_spec_movinand
                0xc7e1d980                env_relocate_spec
                0xc7e1d80c                env_relocate_spec_onenand
                0xc7e1dacc                saveenv_nand_adv
                0xc7e1dd70                saveenv
                0xc7e1d740                env_get_char_spec
                0xc7e1d888                env_relocate_spec_nor
                0xc7e1d74c                env_init
                0xc7e1dd44                saveenv_movinand
                0xc7e1d768                saveenv_onenand
                0xc7e1d9e0                saveenv_nor
                0xc7e1dbc0                saveenv_nand
                0xc7e1d8dc                env_relocate_spec_nand
 .text          0xc7e1de10      0x170 common/libcommon.a(gunzip.o)
                0xc7e1de10                gunzip
                0xc7e1df68                zfree
                0xc7e1df70                zalloc
 .text          0xc7e1df80       0x48 common/libcommon.a(crc16.o)
                0xc7e1df80                cyg_crc16
 .text          0xc7e1dfc8       0xc0 board/samsung/smdk6450/libsmdk6450.a(smdk6450.o)
                0xc7e1e040                virt_to_phy_smdk6450
                0xc7e1e018                dram_init
                0xc7e1e070                checkboard
                0xc7e1dfc8                board_init
                0xc7e1e038                board_late_init
 .text          0xc7e1e088      0x5ec board/samsung/smdk6450/libsmdk6450.a(flash.o)
                0xc7e1e418                flash_erase
                0xc7e1e628                flash_init
                0xc7e1e300                flash_print_info
                0xc7e1e188                write_buff
 .text          0xc7e1e674      0x1fc lib_generic/libgeneric.a(crc32.o)
                0xc7e1e674                crc32
                0xc7e1e86c                crc32_wd
                0xc7e1e774                crc32_no_comp
 .text          0xc7e1e870        0x0 lib_generic/libgeneric.a(ctype.o)
 .text          0xc7e1e870      0x26c lib_generic/libgeneric.a(display_options.o)
                0xc7e1e95c                print_buffer
                0xc7e1e93c                display_options
                0xc7e1e870                print_size
 .text          0xc7e1eadc      0x554 lib_generic/libgeneric.a(lmb.o)
                0xc7e1ee38                lmb_overlaps_region
                0xc7e1ed38                lmb_add
                0xc7e1eadc                lmb_dump_all
                0xc7e1ed3c                lmb_free
                0xc7e1eff4                lmb_alloc_base
                0xc7e1f028                lmb_alloc
                0xc7e1ee8c                __lmb_alloc_base
                0xc7e1eb40                lmb_init
                0xc7e1ef98                lmb_is_reserved
                0xc7e1ee30                lmb_reserve
 .text          0xc7e1f030      0x538 lib_generic/libgeneric.a(string.o)
                0xc7e1f030                strcpy
                0xc7e1f478                memscan
                0xc7e1f3f4                memmove
                0xc7e1f3d4                memcpy
                0xc7e1f340                strswab
                0xc7e1f1dc                strnlen
                0xc7e1f1a4                strrchr
                0xc7e1f070                strcat
                0xc7e1f500                memchr
                0xc7e1f49c                strstr
                0xc7e1f114                strncmp
                0xc7e1f048                strncpy
                0xc7e1f3a8                bcopy
                0xc7e1f288                strtok
                0xc7e1f43c                memcmp
                0xc7e1f09c                strncat
                0xc7e1f52c                strdup
                0xc7e1f38c                memset
                0xc7e1f0e8                strcmp
                0xc7e1f30c                strsep
                0xc7e1f204                strspn
                0xc7e1f184                strlen
                0xc7e1f158                strchr
                0xc7e1f248                strpbrk
 .text          0xc7e1f568      0x868 lib_generic/libgeneric.a(vsprintf.o)
                0xc7e1f94c                vsprintf
                0xc7e1f628                simple_strtol
                0xc7e1f8f4                panic
                0xc7e1fda0                sprintf
                0xc7e1f568                simple_strtoul
 .text          0xc7e1fdd0     0x2ea4 lib_generic/libgeneric.a(zlib.o)
                0xc7e20d18                inflate
                0xc7e207b8                inflateInit2
                0xc7e20be8                inflateIncomp
                0xc7e20900                adler32
                0xc7e20650                inflateReset
                0xc7e206b8                inflateSync
                0xc7e208f8                inflateInit
                0xc7e205b0                inflateEnd
 .text          0xc7e22c74      0x6c8 cpu/s5p645x/libs5p645x.a(usb_ohci.o)
                0xc7e22cf0                rh_check_port_status
                0xc7e22d18                usb_lowlevel_stop
                0xc7e22dd0                sohci_submit_job
                0xc7e22d08                submit_int_msg
                0xc7e23334                submit_bulk_msg
                0xc7e22d00                submit_control_msg
                0xc7e22d10                usb_lowlevel_init
                0xc7e22cf8                submit_common_msg
 .text          0xc7e2333c      0xcc4 cpu/s5p645x/libs5p645x.a(nand.o)
                0xc7e23d88                board_nand_init
 .text          0xc7e24000     0x2c38 cpu/s5p645x/libs5p645x.a(usbd-otg-hs.o)
                0xc7e25d48                s3c_usb_dma_in_done
                0xc7e25e5c                s3c_usb_set_all_outep_nak
                0xc7e261ac                s3c_usb_clear_upfile_info
                0xc7e263f4                s3c_usb_verify_checksum
                0xc7e2621c                s3c_usb_set_opmode
                0xc7e26694                s3c_usb_pkt_receive
                0xc7e26884                s3c_usb_transfer
                0xc7e2616c                s3c_usb_clear_dnfile_info
                0xc7e25728                s3c_usb_int_bulkin
                0xc7e240ec                s3c_usb_set_inep_xfersize
                0xc7e24a54                s3c_usb_transfer_ep0
                0xc7e24930                s3c_usb_set_otherspeed_conf_desc
                0xc7e24070                s3c_usb_set_soft_disconnect
                0xc7e25e84                s3c_usb_clear_all_outep_nak
                0xc7e26b1c                s3c_usbctl_init
                0xc7e25fb4                s3c_usb_set_descriptors
                0xc7e26644                s3c_usb_int_bulkout
                0xc7e269ac                s3c_udc_int_hndlr
                0xc7e24120                s3c_usb_set_outep_xfersize
                0xc7e26ae4                s3c_usb_stop
                0xc7e240a0                s3c_usb_init_device
                0xc7e261ec                s3c_usb_check_setconf
                0xc7e244b0                s3c_usb_set_feature
                0xc7e26764                s3c_usb_dma_out_done
                0xc7e246fc                s3c_usb_ep0_int_hndlr
                0xc7e25f5c                s3c_usb_set_endpoint
                0xc7e264cc                s3c_usb_download_continue
                0xc7e241a8                s3c_usb_write_in_fifo
                0xc7e26a3c                s3c_usb_wait_cable_insert
                0xc7e2441c                s3c_usb_clear_feature
                0xc7e240e4                s3c_usbc_activate
                0xc7e24154                s3c_usb_write_ep0_fifo
                0xc7e25b28                s3c_usb_download_start
                0xc7e25eac                s3c_usb_set_max_pktsize
                0xc7e24058                s3c_usb_check_current_mode
                0xc7e24000                s3c_usb_phy_off
                0xc7e2462c                s3c_usb_get_status
                0xc7e26150                s3c_usb_check_speed
                0xc7e258f8                s3c_usb_upload_start
                0xc7e24038                s3c_usb_init_core
                0xc7e24088                s3c_usb_clear_soft_disconnect
                0xc7e24018                s3c_usb_core_soft_reset
                0xc7e26718                s3c_usb_print_pkt
                0xc7e2635c                s3c_usb_set_init
                0xc7e262f0                s3c_usb_reset
                0xc7e2424c                s3c_usb_get_desc
                0xc7e241fc                s3c_usb_read_out_fifo
                0xc7e26a90                s3c_usb_init_phy
 .text          0xc7e26c38     0x2e88 cpu/s5p645x/libs5p645x.a(fastboot.o)
                0xc7e28cc8                fboot_usb_clear_dnfile_info
                0xc7e28450                fboot_usb_upload_start
                0xc7e28d08                fboot_usb_clear_upfile_info
                0xc7e295cc                fboot_usb_init_phy
                0xc7e26cc0                fboot_usb_clear_soft_disconnect
                0xc7e26ebc                fboot_usb_get_desc
                0xc7e28d78                fboot_usb_set_opmode
                0xc7e29a10                fastboot_poll
                0xc7e26d1c                fboot_usbc_activate
                0xc7e288a0                fboot_usb_dma_in_done
                0xc7e28e4c                fboot_usb_reset
                0xc7e28ab4                fboot_usb_set_endpoint
                0xc7e26d90                fboot_usb_set_outep_xfersize
                0xc7e26d24                fboot_usb_stop
                0xc7e26d5c                fboot_usb_set_inep_xfersize
                0xc7e276f8                fboot_usb_transfer_ep0
                0xc7e28cac                fboot_usb_check_speed
                0xc7e28eb8                fastboot_shutdown
                0xc7e28eec                fastboot_getvar
                0xc7e26e6c                fboot_usb_read_out_fifo
                0xc7e26cd8                fboot_usb_init_device
                0xc7e28ef4                fboot_usb_int_bulkin
                0xc7e2973c                fastboot_init
                0xc7e270c0                fboot_usb_clear_feature
                0xc7e28d48                fboot_usb_check_setconf
                0xc7e2945c                fboot_usb_transfer
                0xc7e289b4                fboot_usb_set_all_outep_nak
                0xc7e28680                fboot_usb_download_start
                0xc7e28ebc                fastboot_fifo_size
                0xc7e29a64                fastboot_tx_status
                0xc7e2933c                fboot_usb_dma_out_done
                0xc7e29620                fboot_usbctl_init
                0xc7e272d0                fboot_usb_get_status
                0xc7e29588                fboot_usb_wait_cable_insert
                0xc7e27154                fboot_usb_set_feature
                0xc7e26dc4                fboot_usb_write_ep0_fifo
                0xc7e273a0                fboot_usb_ep0_int_hndlr
                0xc7e292fc                fboot_usb_print_pkt
                0xc7e28fa8                fastboot_preboot
                0xc7e26c70                fboot_usb_init_core
                0xc7e26ca8                fboot_usb_set_soft_disconnect
                0xc7e29130                fboot_usb_download_continue
                0xc7e29954                fboot_usb_int_hndlr
                0xc7e28a04                fboot_usb_set_max_pktsize
                0xc7e29064                fboot_usb_verify_checksum
                0xc7e29820                fboot_usb_int_bulkout
                0xc7e289dc                fboot_usb_clear_all_outep_nak
                0xc7e28b0c                fboot_usb_set_descriptors
                0xc7e298d0                fboot_usb_pkt_receive
                0xc7e26e18                fboot_usb_write_in_fifo
                0xc7e28fcc                fboot_usb_set_init
                0xc7e26c38                fboot_usb_phy_off
                0xc7e26c90                fboot_usb_check_current_mode
                0xc7e26c50                fboot_usb_core_soft_reset
                0xc7e275d4                fboot_usb_set_otherspeed_conf_desc
 .text          0xc7e29ac0       0x1c lib_arm/libarm.a(_ashldi3.o)
                0xc7e29ac0                __ashldi3
 .text          0xc7e29adc       0x1c lib_arm/libarm.a(_ashrdi3.o)
                0xc7e29adc                __ashrdi3
 .text          0xc7e29af8       0xb4 lib_arm/libarm.a(_umodsi3.o)
                0xc7e29af8                __umodsi3
 .text          0xc7e29bac      0x2fc lib_arm/libarm.a(bootm.o)
                0xc7e29c58                do_bootm_linux
                0xc7e29bac                setup_mtdpartition_tag
 .text          0xc7e29ea8        0x4 lib_arm/libarm.a(cache.o)
                0xc7e29ea8                flush_cache
 .text          0xc7e29eac     0x19c4 fs/fat/libfat.a(fat.o)
                0xc7e2b0a0                file_fat_read
                0xc7e2a77c                do_fat_read
                0xc7e2b0d8                file_fat_ls
                0xc7e2b208                fat_format_device
                0xc7e2a32c                file_fat_detectfs
                0xc7e29ed4                disk_read
                0xc7e2b0e8                fat_register_device
 .text          0xc7e2b870     0x3798 fs/ext2/libext2fs.a(ext2fs.o)
                0xc7e2e224                ext2fs_read_file
                0xc7e2e14c                ext2fs_close
                0xc7e2b8cc                ext2fs_format
                0xc7e2b88c                default_journal_size
                0xc7e2e864                ext2fs_mount
                0xc7e2ef8c                ext2fs_ls
                0xc7e2b870                get_random_val
                0xc7e2ee60                ext2fs_find_file
                0xc7e2eee8                ext2fs_open
                0xc7e2e12c                ext2fs_free_node
                0xc7e2e758                ext2fs_read
                0xc7e2ebac                ext2fs_find_file1
 .text          0xc7e2f008      0x23c fs/ext2/libext2fs.a(dev.o)
                0xc7e2f1f0                ext2fs_set_blk_dev
                0xc7e2f008                ext2fs_devread
 .text          0xc7e2f244      0x350 disk/libdisk.a(part.o)
                0xc7e2f320                dev_print
                0xc7e2f244                print_part
                0xc7e2f530                get_dev
                0xc7e2f4f0                get_partition_info
                0xc7e2f514                init_part
 .text          0xc7e2f594      0x4ec disk/libdisk.a(part_dos.o)
                0xc7e2f85c                get_partition_info_dos
                0xc7e2fa54                print_part_dos
                0xc7e2f5dc                test_part_dos
 .text          0xc7e2fa80      0xe84 drivers/mtd/nand/libnand.a(nand_util.o)
                0xc7e2fa88                nand_lock
                0xc7e2fadc                nand_unlock
                0xc7e2fbec                nand_get_lock_status
                0xc7e3059c                nand_erase_opts
                0xc7e2fc78                nand_read_opts
                0xc7e30038                nand_write_opts
 .text          0xc7e30904      0x290 drivers/rtc/librtc.a(date.o)
                0xc7e30904                GregorianDay
                0xc7e30b00                mktime
                0xc7e309f8                to_tm
 .text          0xc7e30b94      0x23c drivers/rtc/librtc.a(s5p64xx_rtc.o)
                0xc7e30c18                rtc_set
                0xc7e30da8                rtc_reset
                0xc7e30cb4                rtc_get
 .text          0xc7e30dd0      0x120 lib_generic/libgeneric.a(div64.o)
                0xc7e30dd0                __div64_32
 lib_arm/div0.o()
 .data          0xc7e30ef0        0x0 lib_arm/div0.o
 .bss           0xc7e30ef0        0x0 lib_arm/div0.o
 .debug_abbrev  0xc7e30ef0       0x29 lib_arm/div0.o
 .debug_info    0xc7e30f19       0x39 lib_arm/div0.o
 .debug_line    0xc7e30f52       0x38 lib_arm/div0.o
 *fill*         0xc7e30f8a        0x2 00
 .debug_frame   0xc7e30f8c       0x20 lib_arm/div0.o
 .debug_pubnames
                0xc7e30fac       0x1d lib_arm/div0.o
 .debug_aranges
                0xc7e30fc9       0x20 lib_arm/div0.o
 .debug_str     0xc7e30fe9       0x43 lib_arm/div0.o
 .comment       0xc7e3102c       0x12 lib_arm/div0.o
 .ARM.attributes
                0xc7e3103e       0x10 lib_arm/div0.o
 *fill*         0xc7e3104e        0x2 00
 .glue_7        0xc7e31050        0x0 lib_arm/div0.o
 .glue_7t       0xc7e31050        0x0 lib_arm/div0.o
 .vfp11_veneer  0xc7e31050        0x0 lib_arm/div0.o

.glue_7         0xc7e31050        0x0
 .glue_7        0xc7e31050        0x0 cpu/s5p645x/start.o
 .glue_7        0xc7e31050        0x0 cpu/s5p645x/start_irom.o
 .glue_7        0xc7e31050        0x0 cpu/s5p645x/s5p6450/cpu_init.o
 .glue_7        0xc7e31050        0x0 board/samsung/smdk6450/lowlevel_init.o
 .glue_7        0xc7e31050        0x0 cpu/s5p645x/nand_cp.o
 .glue_7        0xc7e31050        0x0 cpu/s5p645x/movi.o
 .glue_7        0xc7e31050        0x0 cpu/s5p645x/libs5p645x.a(interrupts.o)
 .glue_7        0xc7e31050        0x0 cpu/s5p645x/libs5p645x.a(cpu.o)
 .glue_7        0xc7e31050        0x0 cpu/s5p645x/libs5p645x.a(setup_hsmmc.o)
 .glue_7        0xc7e31050        0x0 cpu/s5p645x/libs5p645x.a(serial.o)
 .glue_7        0xc7e31050        0x0 cpu/s5p645x/s5p6450/libs5p6450.a(speed.o)
 .glue_7        0xc7e31050        0x0 lib_arm/libarm.a(_udivsi3.o)
 .glue_7        0xc7e31050        0x0 lib_arm/libarm.a(board.o)
 .glue_7        0xc7e31050        0x0 lib_arm/libarm.a(_divsi3.o)
 .glue_7        0xc7e31050        0x0 lib_arm/libarm.a(_modsi3.o)
 .glue_7        0xc7e31050        0x0 net/libnet.a(net.o)
 .glue_7        0xc7e31050        0x0 net/libnet.a(tftp.o)
 .glue_7        0xc7e31050        0x0 net/libnet.a(bootp.o)
 .glue_7        0xc7e31050        0x0 net/libnet.a(rarp.o)
 .glue_7        0xc7e31050        0x0 net/libnet.a(eth.o)
 .glue_7        0xc7e31050        0x0 net/libnet.a(nfs.o)
 .glue_7        0xc7e31050        0x0 drivers/mmc/libmmc.a(mmc.o)
 .glue_7        0xc7e31050        0x0 drivers/mmc/libmmc.a(s3c_hsmmc.o)
 .glue_7        0xc7e31050        0x0 drivers/mtd/nand/libnand.a(nand.o)
 .glue_7        0xc7e31050        0x0 drivers/mtd/nand/libnand.a(nand_base.o)
 .glue_7        0xc7e31050        0x0 drivers/mtd/nand/libnand.a(nand_ids.o)
 .glue_7        0xc7e31050        0x0 drivers/mtd/nand/libnand.a(nand_ecc.o)
 .glue_7        0xc7e31050        0x0 drivers/mtd/nand/libnand.a(nand_bbt.o)
 .glue_7        0xc7e31050        0x0 drivers/net/libnet.a(dm9000x.o)
 .glue_7        0xc7e31050        0x0 common/libcommon.a(main.o)
 .glue_7        0xc7e31050        0x0 common/libcommon.a(cmd_autoscript.o)
 .glue_7        0xc7e31050        0x0 common/libcommon.a(cmd_bdinfo.o)
 .glue_7        0xc7e31050        0x0 common/libcommon.a(image.o)
 .glue_7        0xc7e31050        0x0 common/libcommon.a(cmd_boot.o)
 .glue_7        0xc7e31050        0x0 common/libcommon.a(cmd_bootm.o)
 .glue_7        0xc7e31050        0x0 common/libcommon.a(cmd_cache.o)
 .glue_7        0xc7e31050        0x0 common/libcommon.a(cmd_console.o)
 .glue_7        0xc7e31050        0x0 common/libcommon.a(cmd_date.o)
 .glue_7        0xc7e31050        0x0 common/libcommon.a(cmd_elf.o)
 .glue_7        0xc7e31050        0x0 common/libcommon.a(cmd_ext2.o)
 .glue_7        0xc7e31050        0x0 common/libcommon.a(cmd_fat.o)
 .glue_7        0xc7e31050        0x0 common/libcommon.a(cmd_flash.o)
 .glue_7        0xc7e31050        0x0 common/libcommon.a(cmd_itest.o)
 .glue_7        0xc7e31050        0x0 common/libcommon.a(cmd_load.o)
 .glue_7        0xc7e31050        0x0 common/libcommon.a(cmd_mem.o)
 .glue_7        0xc7e31050        0x0 common/libcommon.a(cmd_misc.o)
 .glue_7        0xc7e31050        0x0 common/libcommon.a(cmd_mmc.o)
 .glue_7        0xc7e31050        0x0 common/libcommon.a(cmd_nand.o)
 .glue_7        0xc7e31050        0x0 common/libcommon.a(cmd_net.o)
 .glue_7        0xc7e31050        0x0 common/libcommon.a(cmd_nvedit.o)
 .glue_7        0xc7e31050        0x0 common/libcommon.a(cmd_reginfo.o)
 .glue_7        0xc7e31050        0x0 common/libcommon.a(cmd_usbd.o)
 .glue_7        0xc7e31050        0x0 common/libcommon.a(cmd_ximg.o)
 .glue_7        0xc7e31050        0x0 common/libcommon.a(command.o)
 .glue_7        0xc7e31050        0x0 common/libcommon.a(console.o)
 .glue_7        0xc7e31050        0x0 common/libcommon.a(devices.o)
 .glue_7        0xc7e31050        0x0 common/libcommon.a(dlmalloc.o)
 .glue_7        0xc7e31050        0x0 common/libcommon.a(env_common.o)
 .glue_7        0xc7e31050        0x0 common/libcommon.a(exports.o)
 .glue_7        0xc7e31050        0x0 common/libcommon.a(flash.o)
 .glue_7        0xc7e31050        0x0 common/libcommon.a(hush.o)
 .glue_7        0xc7e31050        0x0 common/libcommon.a(lists.o)
 .glue_7        0xc7e31050        0x0 common/libcommon.a(s_record.o)
 .glue_7        0xc7e31050        0x0 common/libcommon.a(usb.o)
 .glue_7        0xc7e31050        0x0 common/libcommon.a(xyzModem.o)
 .glue_7        0xc7e31050        0x0 common/libcommon.a(cmd_movi.o)
 .glue_7        0xc7e31050        0x0 common/libcommon.a(cmd_lcd.o)
 .glue_7        0xc7e31050        0x0 common/libcommon.a(cmd_fastboot.o)
 .glue_7        0xc7e31050        0x0 common/libcommon.a(cmd_mmc_fdisk.o)
 .glue_7        0xc7e31050        0x0 common/libcommon.a(env_auto.o)
 .glue_7        0xc7e31050        0x0 common/libcommon.a(gunzip.o)
 .glue_7        0xc7e31050        0x0 common/libcommon.a(crc16.o)
 .glue_7        0xc7e31050        0x0 board/samsung/smdk6450/libsmdk6450.a(smdk6450.o)
 .glue_7        0xc7e31050        0x0 board/samsung/smdk6450/libsmdk6450.a(flash.o)
 .glue_7        0xc7e31050        0x0 lib_generic/libgeneric.a(crc32.o)
 .glue_7        0xc7e31050        0x0 lib_generic/libgeneric.a(ctype.o)
 .glue_7        0xc7e31050        0x0 lib_generic/libgeneric.a(display_options.o)
 .glue_7        0xc7e31050        0x0 lib_generic/libgeneric.a(lmb.o)
 .glue_7        0xc7e31050        0x0 lib_generic/libgeneric.a(string.o)
 .glue_7        0xc7e31050        0x0 lib_generic/libgeneric.a(vsprintf.o)
 .glue_7        0xc7e31050        0x0 lib_generic/libgeneric.a(zlib.o)
 .glue_7        0xc7e31050        0x0 cpu/s5p645x/libs5p645x.a(usb_ohci.o)
 .glue_7        0xc7e31050        0x0 cpu/s5p645x/libs5p645x.a(nand.o)
 .glue_7        0xc7e31050        0x0 cpu/s5p645x/libs5p645x.a(usbd-otg-hs.o)
 .glue_7        0xc7e31050        0x0 cpu/s5p645x/libs5p645x.a(fastboot.o)
 .glue_7        0xc7e31050        0x0 lib_arm/libarm.a(_ashldi3.o)
 .glue_7        0xc7e31050        0x0 lib_arm/libarm.a(_ashrdi3.o)
 .glue_7        0xc7e31050        0x0 lib_arm/libarm.a(_umodsi3.o)
 .glue_7        0xc7e31050        0x0 lib_arm/libarm.a(bootm.o)
 .glue_7        0xc7e31050        0x0 lib_arm/libarm.a(cache.o)
 .glue_7        0xc7e31050        0x0 fs/fat/libfat.a(fat.o)
 .glue_7        0xc7e31050        0x0 fs/ext2/libext2fs.a(ext2fs.o)
 .glue_7        0xc7e31050        0x0 fs/ext2/libext2fs.a(dev.o)
 .glue_7        0xc7e31050        0x0 disk/libdisk.a(part.o)
 .glue_7        0xc7e31050        0x0 disk/libdisk.a(part_dos.o)
 .glue_7        0xc7e31050        0x0 drivers/mtd/nand/libnand.a(nand_util.o)
 .glue_7        0xc7e31050        0x0 drivers/rtc/librtc.a(date.o)
 .glue_7        0xc7e31050        0x0 drivers/rtc/librtc.a(s5p64xx_rtc.o)
 .glue_7        0xc7e31050        0x0 lib_generic/libgeneric.a(div64.o)

.glue_7t        0xc7e31050        0x0
 .glue_7t       0xc7e31050        0x0 cpu/s5p645x/start.o
 .glue_7t       0xc7e31050        0x0 cpu/s5p645x/start_irom.o
 .glue_7t       0xc7e31050        0x0 cpu/s5p645x/s5p6450/cpu_init.o
 .glue_7t       0xc7e31050        0x0 board/samsung/smdk6450/lowlevel_init.o
 .glue_7t       0xc7e31050        0x0 cpu/s5p645x/nand_cp.o
 .glue_7t       0xc7e31050        0x0 cpu/s5p645x/movi.o
 .glue_7t       0xc7e31050        0x0 cpu/s5p645x/libs5p645x.a(interrupts.o)
 .glue_7t       0xc7e31050        0x0 cpu/s5p645x/libs5p645x.a(cpu.o)
 .glue_7t       0xc7e31050        0x0 cpu/s5p645x/libs5p645x.a(setup_hsmmc.o)
 .glue_7t       0xc7e31050        0x0 cpu/s5p645x/libs5p645x.a(serial.o)
 .glue_7t       0xc7e31050        0x0 cpu/s5p645x/s5p6450/libs5p6450.a(speed.o)
 .glue_7t       0xc7e31050        0x0 lib_arm/libarm.a(_udivsi3.o)
 .glue_7t       0xc7e31050        0x0 lib_arm/libarm.a(board.o)
 .glue_7t       0xc7e31050        0x0 lib_arm/libarm.a(_divsi3.o)
 .glue_7t       0xc7e31050        0x0 lib_arm/libarm.a(_modsi3.o)
 .glue_7t       0xc7e31050        0x0 net/libnet.a(net.o)
 .glue_7t       0xc7e31050        0x0 net/libnet.a(tftp.o)
 .glue_7t       0xc7e31050        0x0 net/libnet.a(bootp.o)
 .glue_7t       0xc7e31050        0x0 net/libnet.a(rarp.o)
 .glue_7t       0xc7e31050        0x0 net/libnet.a(eth.o)
 .glue_7t       0xc7e31050        0x0 net/libnet.a(nfs.o)
 .glue_7t       0xc7e31050        0x0 drivers/mmc/libmmc.a(mmc.o)
 .glue_7t       0xc7e31050        0x0 drivers/mmc/libmmc.a(s3c_hsmmc.o)
 .glue_7t       0xc7e31050        0x0 drivers/mtd/nand/libnand.a(nand.o)
 .glue_7t       0xc7e31050        0x0 drivers/mtd/nand/libnand.a(nand_base.o)
 .glue_7t       0xc7e31050        0x0 drivers/mtd/nand/libnand.a(nand_ids.o)
 .glue_7t       0xc7e31050        0x0 drivers/mtd/nand/libnand.a(nand_ecc.o)
 .glue_7t       0xc7e31050        0x0 drivers/mtd/nand/libnand.a(nand_bbt.o)
 .glue_7t       0xc7e31050        0x0 drivers/net/libnet.a(dm9000x.o)
 .glue_7t       0xc7e31050        0x0 common/libcommon.a(main.o)
 .glue_7t       0xc7e31050        0x0 common/libcommon.a(cmd_autoscript.o)
 .glue_7t       0xc7e31050        0x0 common/libcommon.a(cmd_bdinfo.o)
 .glue_7t       0xc7e31050        0x0 common/libcommon.a(image.o)
 .glue_7t       0xc7e31050        0x0 common/libcommon.a(cmd_boot.o)
 .glue_7t       0xc7e31050        0x0 common/libcommon.a(cmd_bootm.o)
 .glue_7t       0xc7e31050        0x0 common/libcommon.a(cmd_cache.o)
 .glue_7t       0xc7e31050        0x0 common/libcommon.a(cmd_console.o)
 .glue_7t       0xc7e31050        0x0 common/libcommon.a(cmd_date.o)
 .glue_7t       0xc7e31050        0x0 common/libcommon.a(cmd_elf.o)
 .glue_7t       0xc7e31050        0x0 common/libcommon.a(cmd_ext2.o)
 .glue_7t       0xc7e31050        0x0 common/libcommon.a(cmd_fat.o)
 .glue_7t       0xc7e31050        0x0 common/libcommon.a(cmd_flash.o)
 .glue_7t       0xc7e31050        0x0 common/libcommon.a(cmd_itest.o)
 .glue_7t       0xc7e31050        0x0 common/libcommon.a(cmd_load.o)
 .glue_7t       0xc7e31050        0x0 common/libcommon.a(cmd_mem.o)
 .glue_7t       0xc7e31050        0x0 common/libcommon.a(cmd_misc.o)
 .glue_7t       0xc7e31050        0x0 common/libcommon.a(cmd_mmc.o)
 .glue_7t       0xc7e31050        0x0 common/libcommon.a(cmd_nand.o)
 .glue_7t       0xc7e31050        0x0 common/libcommon.a(cmd_net.o)
 .glue_7t       0xc7e31050        0x0 common/libcommon.a(cmd_nvedit.o)
 .glue_7t       0xc7e31050        0x0 common/libcommon.a(cmd_reginfo.o)
 .glue_7t       0xc7e31050        0x0 common/libcommon.a(cmd_usbd.o)
 .glue_7t       0xc7e31050        0x0 common/libcommon.a(cmd_ximg.o)
 .glue_7t       0xc7e31050        0x0 common/libcommon.a(command.o)
 .glue_7t       0xc7e31050        0x0 common/libcommon.a(console.o)
 .glue_7t       0xc7e31050        0x0 common/libcommon.a(devices.o)
 .glue_7t       0xc7e31050        0x0 common/libcommon.a(dlmalloc.o)
 .glue_7t       0xc7e31050        0x0 common/libcommon.a(env_common.o)
 .glue_7t       0xc7e31050        0x0 common/libcommon.a(exports.o)
 .glue_7t       0xc7e31050        0x0 common/libcommon.a(flash.o)
 .glue_7t       0xc7e31050        0x0 common/libcommon.a(hush.o)
 .glue_7t       0xc7e31050        0x0 common/libcommon.a(lists.o)
 .glue_7t       0xc7e31050        0x0 common/libcommon.a(s_record.o)
 .glue_7t       0xc7e31050        0x0 common/libcommon.a(usb.o)
 .glue_7t       0xc7e31050        0x0 common/libcommon.a(xyzModem.o)
 .glue_7t       0xc7e31050        0x0 common/libcommon.a(cmd_movi.o)
 .glue_7t       0xc7e31050        0x0 common/libcommon.a(cmd_lcd.o)
 .glue_7t       0xc7e31050        0x0 common/libcommon.a(cmd_fastboot.o)
 .glue_7t       0xc7e31050        0x0 common/libcommon.a(cmd_mmc_fdisk.o)
 .glue_7t       0xc7e31050        0x0 common/libcommon.a(env_auto.o)
 .glue_7t       0xc7e31050        0x0 common/libcommon.a(gunzip.o)
 .glue_7t       0xc7e31050        0x0 common/libcommon.a(crc16.o)
 .glue_7t       0xc7e31050        0x0 board/samsung/smdk6450/libsmdk6450.a(smdk6450.o)
 .glue_7t       0xc7e31050        0x0 board/samsung/smdk6450/libsmdk6450.a(flash.o)
 .glue_7t       0xc7e31050        0x0 lib_generic/libgeneric.a(crc32.o)
 .glue_7t       0xc7e31050        0x0 lib_generic/libgeneric.a(ctype.o)
 .glue_7t       0xc7e31050        0x0 lib_generic/libgeneric.a(display_options.o)
 .glue_7t       0xc7e31050        0x0 lib_generic/libgeneric.a(lmb.o)
 .glue_7t       0xc7e31050        0x0 lib_generic/libgeneric.a(string.o)
 .glue_7t       0xc7e31050        0x0 lib_generic/libgeneric.a(vsprintf.o)
 .glue_7t       0xc7e31050        0x0 lib_generic/libgeneric.a(zlib.o)
 .glue_7t       0xc7e31050        0x0 cpu/s5p645x/libs5p645x.a(usb_ohci.o)
 .glue_7t       0xc7e31050        0x0 cpu/s5p645x/libs5p645x.a(nand.o)
 .glue_7t       0xc7e31050        0x0 cpu/s5p645x/libs5p645x.a(usbd-otg-hs.o)
 .glue_7t       0xc7e31050        0x0 cpu/s5p645x/libs5p645x.a(fastboot.o)
 .glue_7t       0xc7e31050        0x0 lib_arm/libarm.a(_ashldi3.o)
 .glue_7t       0xc7e31050        0x0 lib_arm/libarm.a(_ashrdi3.o)
 .glue_7t       0xc7e31050        0x0 lib_arm/libarm.a(_umodsi3.o)
 .glue_7t       0xc7e31050        0x0 lib_arm/libarm.a(bootm.o)
 .glue_7t       0xc7e31050        0x0 lib_arm/libarm.a(cache.o)
 .glue_7t       0xc7e31050        0x0 fs/fat/libfat.a(fat.o)
 .glue_7t       0xc7e31050        0x0 fs/ext2/libext2fs.a(ext2fs.o)
 .glue_7t       0xc7e31050        0x0 fs/ext2/libext2fs.a(dev.o)
 .glue_7t       0xc7e31050        0x0 disk/libdisk.a(part.o)
 .glue_7t       0xc7e31050        0x0 disk/libdisk.a(part_dos.o)
 .glue_7t       0xc7e31050        0x0 drivers/mtd/nand/libnand.a(nand_util.o)
 .glue_7t       0xc7e31050        0x0 drivers/rtc/librtc.a(date.o)
 .glue_7t       0xc7e31050        0x0 drivers/rtc/librtc.a(s5p64xx_rtc.o)
 .glue_7t       0xc7e31050        0x0 lib_generic/libgeneric.a(div64.o)

.vfp11_veneer   0xc7e31050        0x0
 .vfp11_veneer  0xc7e31050        0x0 cpu/s5p645x/start.o
 .vfp11_veneer  0xc7e31050        0x0 cpu/s5p645x/start_irom.o
 .vfp11_veneer  0xc7e31050        0x0 cpu/s5p645x/s5p6450/cpu_init.o
 .vfp11_veneer  0xc7e31050        0x0 board/samsung/smdk6450/lowlevel_init.o
 .vfp11_veneer  0xc7e31050        0x0 cpu/s5p645x/nand_cp.o
 .vfp11_veneer  0xc7e31050        0x0 cpu/s5p645x/movi.o
 .vfp11_veneer  0xc7e31050        0x0 cpu/s5p645x/libs5p645x.a(interrupts.o)
 .vfp11_veneer  0xc7e31050        0x0 cpu/s5p645x/libs5p645x.a(cpu.o)
 .vfp11_veneer  0xc7e31050        0x0 cpu/s5p645x/libs5p645x.a(setup_hsmmc.o)
 .vfp11_veneer  0xc7e31050        0x0 cpu/s5p645x/libs5p645x.a(serial.o)
 .vfp11_veneer  0xc7e31050        0x0 cpu/s5p645x/s5p6450/libs5p6450.a(speed.o)
 .vfp11_veneer  0xc7e31050        0x0 lib_arm/libarm.a(_udivsi3.o)
 .vfp11_veneer  0xc7e31050        0x0 lib_arm/libarm.a(board.o)
 .vfp11_veneer  0xc7e31050        0x0 lib_arm/libarm.a(_divsi3.o)
 .vfp11_veneer  0xc7e31050        0x0 lib_arm/libarm.a(_modsi3.o)
 .vfp11_veneer  0xc7e31050        0x0 net/libnet.a(net.o)
 .vfp11_veneer  0xc7e31050        0x0 net/libnet.a(tftp.o)
 .vfp11_veneer  0xc7e31050        0x0 net/libnet.a(bootp.o)
 .vfp11_veneer  0xc7e31050        0x0 net/libnet.a(rarp.o)
 .vfp11_veneer  0xc7e31050        0x0 net/libnet.a(eth.o)
 .vfp11_veneer  0xc7e31050        0x0 net/libnet.a(nfs.o)
 .vfp11_veneer  0xc7e31050        0x0 drivers/mmc/libmmc.a(mmc.o)
 .vfp11_veneer  0xc7e31050        0x0 drivers/mmc/libmmc.a(s3c_hsmmc.o)
 .vfp11_veneer  0xc7e31050        0x0 drivers/mtd/nand/libnand.a(nand.o)
 .vfp11_veneer  0xc7e31050        0x0 drivers/mtd/nand/libnand.a(nand_base.o)
 .vfp11_veneer  0xc7e31050        0x0 drivers/mtd/nand/libnand.a(nand_ids.o)
 .vfp11_veneer  0xc7e31050        0x0 drivers/mtd/nand/libnand.a(nand_ecc.o)
 .vfp11_veneer  0xc7e31050        0x0 drivers/mtd/nand/libnand.a(nand_bbt.o)
 .vfp11_veneer  0xc7e31050        0x0 drivers/net/libnet.a(dm9000x.o)
 .vfp11_veneer  0xc7e31050        0x0 common/libcommon.a(main.o)
 .vfp11_veneer  0xc7e31050        0x0 common/libcommon.a(cmd_autoscript.o)
 .vfp11_veneer  0xc7e31050        0x0 common/libcommon.a(cmd_bdinfo.o)
 .vfp11_veneer  0xc7e31050        0x0 common/libcommon.a(image.o)
 .vfp11_veneer  0xc7e31050        0x0 common/libcommon.a(cmd_boot.o)
 .vfp11_veneer  0xc7e31050        0x0 common/libcommon.a(cmd_bootm.o)
 .vfp11_veneer  0xc7e31050        0x0 common/libcommon.a(cmd_cache.o)
 .vfp11_veneer  0xc7e31050        0x0 common/libcommon.a(cmd_console.o)
 .vfp11_veneer  0xc7e31050        0x0 common/libcommon.a(cmd_date.o)
 .vfp11_veneer  0xc7e31050        0x0 common/libcommon.a(cmd_elf.o)
 .vfp11_veneer  0xc7e31050        0x0 common/libcommon.a(cmd_ext2.o)
 .vfp11_veneer  0xc7e31050        0x0 common/libcommon.a(cmd_fat.o)
 .vfp11_veneer  0xc7e31050        0x0 common/libcommon.a(cmd_flash.o)
 .vfp11_veneer  0xc7e31050        0x0 common/libcommon.a(cmd_itest.o)
 .vfp11_veneer  0xc7e31050        0x0 common/libcommon.a(cmd_load.o)
 .vfp11_veneer  0xc7e31050        0x0 common/libcommon.a(cmd_mem.o)
 .vfp11_veneer  0xc7e31050        0x0 common/libcommon.a(cmd_misc.o)
 .vfp11_veneer  0xc7e31050        0x0 common/libcommon.a(cmd_mmc.o)
 .vfp11_veneer  0xc7e31050        0x0 common/libcommon.a(cmd_nand.o)
 .vfp11_veneer  0xc7e31050        0x0 common/libcommon.a(cmd_net.o)
 .vfp11_veneer  0xc7e31050        0x0 common/libcommon.a(cmd_nvedit.o)
 .vfp11_veneer  0xc7e31050        0x0 common/libcommon.a(cmd_reginfo.o)
 .vfp11_veneer  0xc7e31050        0x0 common/libcommon.a(cmd_usbd.o)
 .vfp11_veneer  0xc7e31050        0x0 common/libcommon.a(cmd_ximg.o)
 .vfp11_veneer  0xc7e31050        0x0 common/libcommon.a(command.o)
 .vfp11_veneer  0xc7e31050        0x0 common/libcommon.a(console.o)
 .vfp11_veneer  0xc7e31050        0x0 common/libcommon.a(devices.o)
 .vfp11_veneer  0xc7e31050        0x0 common/libcommon.a(dlmalloc.o)
 .vfp11_veneer  0xc7e31050        0x0 common/libcommon.a(env_common.o)
 .vfp11_veneer  0xc7e31050        0x0 common/libcommon.a(exports.o)
 .vfp11_veneer  0xc7e31050        0x0 common/libcommon.a(flash.o)
 .vfp11_veneer  0xc7e31050        0x0 common/libcommon.a(hush.o)
 .vfp11_veneer  0xc7e31050        0x0 common/libcommon.a(lists.o)
 .vfp11_veneer  0xc7e31050        0x0 common/libcommon.a(s_record.o)
 .vfp11_veneer  0xc7e31050        0x0 common/libcommon.a(usb.o)
 .vfp11_veneer  0xc7e31050        0x0 common/libcommon.a(xyzModem.o)
 .vfp11_veneer  0xc7e31050        0x0 common/libcommon.a(cmd_movi.o)
 .vfp11_veneer  0xc7e31050        0x0 common/libcommon.a(cmd_lcd.o)
 .vfp11_veneer  0xc7e31050        0x0 common/libcommon.a(cmd_fastboot.o)
 .vfp11_veneer  0xc7e31050        0x0 common/libcommon.a(cmd_mmc_fdisk.o)
 .vfp11_veneer  0xc7e31050        0x0 common/libcommon.a(env_auto.o)
 .vfp11_veneer  0xc7e31050        0x0 common/libcommon.a(gunzip.o)
 .vfp11_veneer  0xc7e31050        0x0 common/libcommon.a(crc16.o)
 .vfp11_veneer  0xc7e31050        0x0 board/samsung/smdk6450/libsmdk6450.a(smdk6450.o)
 .vfp11_veneer  0xc7e31050        0x0 board/samsung/smdk6450/libsmdk6450.a(flash.o)
 .vfp11_veneer  0xc7e31050        0x0 lib_generic/libgeneric.a(crc32.o)
 .vfp11_veneer  0xc7e31050        0x0 lib_generic/libgeneric.a(ctype.o)
 .vfp11_veneer  0xc7e31050        0x0 lib_generic/libgeneric.a(display_options.o)
 .vfp11_veneer  0xc7e31050        0x0 lib_generic/libgeneric.a(lmb.o)
 .vfp11_veneer  0xc7e31050        0x0 lib_generic/libgeneric.a(string.o)
 .vfp11_veneer  0xc7e31050        0x0 lib_generic/libgeneric.a(vsprintf.o)
 .vfp11_veneer  0xc7e31050        0x0 lib_generic/libgeneric.a(zlib.o)
 .vfp11_veneer  0xc7e31050        0x0 cpu/s5p645x/libs5p645x.a(usb_ohci.o)
 .vfp11_veneer  0xc7e31050        0x0 cpu/s5p645x/libs5p645x.a(nand.o)
 .vfp11_veneer  0xc7e31050        0x0 cpu/s5p645x/libs5p645x.a(usbd-otg-hs.o)
 .vfp11_veneer  0xc7e31050        0x0 cpu/s5p645x/libs5p645x.a(fastboot.o)
 .vfp11_veneer  0xc7e31050        0x0 lib_arm/libarm.a(_ashldi3.o)
 .vfp11_veneer  0xc7e31050        0x0 lib_arm/libarm.a(_ashrdi3.o)
 .vfp11_veneer  0xc7e31050        0x0 lib_arm/libarm.a(_umodsi3.o)
 .vfp11_veneer  0xc7e31050        0x0 lib_arm/libarm.a(bootm.o)
 .vfp11_veneer  0xc7e31050        0x0 lib_arm/libarm.a(cache.o)
 .vfp11_veneer  0xc7e31050        0x0 fs/fat/libfat.a(fat.o)
 .vfp11_veneer  0xc7e31050        0x0 fs/ext2/libext2fs.a(ext2fs.o)
 .vfp11_veneer  0xc7e31050        0x0 fs/ext2/libext2fs.a(dev.o)
 .vfp11_veneer  0xc7e31050        0x0 disk/libdisk.a(part.o)
 .vfp11_veneer  0xc7e31050        0x0 disk/libdisk.a(part_dos.o)
 .vfp11_veneer  0xc7e31050        0x0 drivers/mtd/nand/libnand.a(nand_util.o)
 .vfp11_veneer  0xc7e31050        0x0 drivers/rtc/librtc.a(date.o)
 .vfp11_veneer  0xc7e31050        0x0 drivers/rtc/librtc.a(s5p64xx_rtc.o)
 .vfp11_veneer  0xc7e31050        0x0 lib_generic/libgeneric.a(div64.o)
                0xc7e31050                . = ALIGN (0x4)

.rodata         0xc7e31050      0xa78
 *(.rodata)
 .rodata        0xc7e31050       0x80 cpu/s5p645x/libs5p645x.a(interrupts.o)
 .rodata        0xc7e310d0       0x38 lib_arm/libarm.a(board.o)
                0xc7e310d0                version_string
 .rodata        0xc7e31108        0x8 net/libnet.a(net.o)
 .rodata        0xc7e31110        0x8 drivers/mtd/nand/libnand.a(nand.o)
 .rodata        0xc7e31118       0x48 drivers/mtd/nand/libnand.a(nand_base.o)
 .rodata        0xc7e31160      0x100 drivers/mtd/nand/libnand.a(nand_ecc.o)
 .rodata        0xc7e31260       0x14 common/libcommon.a(cmd_nvedit.o)
 .rodata        0xc7e31274       0x34 common/libcommon.a(cmd_fastboot.o)
 .rodata        0xc7e312a8      0x200 common/libcommon.a(crc16.o)
 .rodata        0xc7e314a8      0x400 lib_generic/libgeneric.a(crc32.o)
 .rodata        0xc7e318a8       0x90 lib_generic/libgeneric.a(zlib.o)
 .rodata        0xc7e31938       0xa2 cpu/s5p645x/libs5p645x.a(usbd-otg-hs.o)
                0xc7e31938                string_desc0
                0xc7e319ba                config_high_total
                0xc7e31991                config_full_total
                0xc7e319b1                config_high
                0xc7e3193c                string_desc1
                0xc7e3197e                qualifier_desc
                0xc7e31988                config_full
                0xc7e31952                string_desc2
 *fill*         0xc7e319da        0x2 00
 .rodata        0xc7e319dc       0xac cpu/s5p645x/libs5p645x.a(fastboot.o)
                0xc7e319e2                fboot_string_desc1
                0xc7e31a5d                fboot_config_high
                0xc7e319fa                fboot_string_desc2
                0xc7e31a34                fboot_config_full
                0xc7e319de                fboot_string_desc0
                0xc7e31a12                string_desc3
                0xc7e31a66                fboot_config_high_total
                0xc7e31a3d                fboot_config_full_total
                0xc7e31a2a                fboot_qualifier_desc
 .rodata        0xc7e31a88       0x10 disk/libdisk.a(part.o)
 .rodata        0xc7e31a98       0x30 drivers/rtc/librtc.a(date.o)

.rodata.str1.4  0xc7e31ac8     0x91bc
 .rodata.str1.4
                0xc7e31ac8        0xc cpu/s5p645x/movi.o
 .rodata.str1.4
                0xc7e31ad4      0x297 cpu/s5p645x/libs5p645x.a(interrupts.o)
                                0x29c (size before relaxing)
 *fill*         0xc7e31d6b        0x1 00
 .rodata.str1.4
                0xc7e31d6c        0xd cpu/s5p645x/libs5p645x.a(cpu.o)
                                 0x10 (size before relaxing)
 *fill*         0xc7e31d79        0x3 00
 .rodata.str1.4
                0xc7e31d7c       0x74 cpu/s5p645x/libs5p645x.a(setup_hsmmc.o)
 .rodata.str1.4
                0xc7e31df0       0x62 cpu/s5p645x/s5p6450/libs5p6450.a(speed.o)
                                 0x64 (size before relaxing)
 *fill*         0xc7e31e52        0x2 00
 .rodata.str1.4
                0xc7e31e54       0xab lib_arm/libarm.a(board.o)
                                 0xb0 (size before relaxing)
 *fill*         0xc7e31eff        0x1 00
 .rodata.str1.4
                0xc7e31f00      0x1e5 net/libnet.a(net.o)
                                0x1ec (size before relaxing)
 *fill*         0xc7e320e5        0x3 00
 .rodata.str1.4
                0xc7e320e8      0x1e1 net/libnet.a(tftp.o)
                                0x1ec (size before relaxing)
 *fill*         0xc7e322c9        0x3 00
 .rodata.str1.4
                0xc7e322cc      0x115 net/libnet.a(bootp.o)
                                0x14c (size before relaxing)
 *fill*         0xc7e323e1        0x3 00
 .rodata.str1.4
                0xc7e323e4       0x13 net/libnet.a(rarp.o)
                                 0x4c (size before relaxing)
 *fill*         0xc7e323f7        0x1 00
 .rodata.str1.4
                0xc7e323f8      0x101 net/libnet.a(nfs.o)
                                0x18c (size before relaxing)
 *fill*         0xc7e324f9        0x3 00
 .rodata.str1.4
                0xc7e324fc      0x268 drivers/mmc/libmmc.a(mmc.o)
                                0x26c (size before relaxing)
 .rodata.str1.4
                0xc7e32764      0x157 drivers/mmc/libmmc.a(s3c_hsmmc.o)
                                0x158 (size before relaxing)
 *fill*         0xc7e328bb        0x1 00
 .rodata.str1.4
                0xc7e328bc        0x7 drivers/mtd/nand/libnand.a(nand.o)
                                  0xc (size before relaxing)
 *fill*         0xc7e328c3        0x1 00
 .rodata.str1.4
                0xc7e328c4      0x251 drivers/mtd/nand/libnand.a(nand_base.o)
                                0x254 (size before relaxing)
 *fill*         0xc7e32b15        0x3 00
 .rodata.str1.4
                0xc7e32b18      0x444 drivers/mtd/nand/libnand.a(nand_ids.o)
 .rodata.str1.4
                0xc7e32f5c      0x284 drivers/mtd/nand/libnand.a(nand_bbt.o)
 .rodata.str1.4
                0xc7e331e0      0x232 drivers/net/libnet.a(dm9000x.o)
                                0x23c (size before relaxing)
 *fill*         0xc7e33412        0x2 00
 .rodata.str1.4
                0xc7e33414       0xfc common/libcommon.a(main.o)
                                0x100 (size before relaxing)
 .rodata.str1.4
                0xc7e33510      0x11b common/libcommon.a(cmd_autoscript.o)
                                0x11c (size before relaxing)
 *fill*         0xc7e3362b        0x1 00
 .rodata.str1.4
                0xc7e3362c       0xbe common/libcommon.a(cmd_bdinfo.o)
                                 0xc0 (size before relaxing)
 *fill*         0xc7e336ea        0x2 00
 .rodata.str1.4
                0xc7e336ec      0x554 common/libcommon.a(image.o)
                                0x588 (size before relaxing)
 .rodata.str1.4
                0xc7e33c40      0x10f common/libcommon.a(cmd_boot.o)
                                0x11c (size before relaxing)
 *fill*         0xc7e33d4f        0x1 00
 .rodata.str1.4
                0xc7e33d50      0x76b common/libcommon.a(cmd_bootm.o)
                                0x98c (size before relaxing)
 *fill*         0xc7e344bb        0x1 00
 .rodata.str1.4
                0xc7e344bc      0x125 common/libcommon.a(cmd_cache.o)
                                0x13c (size before relaxing)
 *fill*         0xc7e345e1        0x3 00
 .rodata.str1.4
                0xc7e345e4       0x6d common/libcommon.a(cmd_console.o)
                                 0x74 (size before relaxing)
 *fill*         0xc7e34651        0x3 00
 .rodata.str1.4
                0xc7e34654      0x16c common/libcommon.a(cmd_date.o)
                                0x180 (size before relaxing)
 .rodata.str1.4
                0xc7e347c0      0x2b9 common/libcommon.a(cmd_elf.o)
                                0x2c8 (size before relaxing)
 *fill*         0xc7e34a79        0x3 00
 .rodata.str1.4
                0xc7e34a7c      0x4af common/libcommon.a(cmd_ext2.o)
                                0x4f0 (size before relaxing)
 *fill*         0xc7e34f2b        0x1 00
 .rodata.str1.4
                0xc7e34f2c      0x3e8 common/libcommon.a(cmd_fat.o)
                                0x550 (size before relaxing)
 .rodata.str1.4
                0xc7e35314      0x60f common/libcommon.a(cmd_flash.o)
                                0x628 (size before relaxing)
 *fill*         0xc7e35923        0x1 00
 .rodata.str1.4
                0xc7e35924       0xcf common/libcommon.a(cmd_itest.o)
                                 0xdc (size before relaxing)
 *fill*         0xc7e359f3        0x1 00
 .rodata.str1.4
                0xc7e359f4      0x377 common/libcommon.a(cmd_load.o)
                                0x398 (size before relaxing)
 *fill*         0xc7e35d6b        0x1 00
 .rodata.str1.4
                0xc7e35d6c      0x5fa common/libcommon.a(cmd_mem.o)
                                0x620 (size before relaxing)
 *fill*         0xc7e36366        0x2 00
 .rodata.str1.4
                0xc7e36368       0x70 common/libcommon.a(cmd_misc.o)
                                 0x7c (size before relaxing)
 .rodata.str1.4
                0xc7e363d8      0x24c common/libcommon.a(cmd_mmc.o)
                                0x25c (size before relaxing)
 .rodata.str1.4
                0xc7e36624      0x985 common/libcommon.a(cmd_nand.o)
                                0x9cc (size before relaxing)
 *fill*         0xc7e36fa9        0x3 00
 .rodata.str1.4
                0xc7e36fac      0x265 common/libcommon.a(cmd_net.o)
                                0x2bc (size before relaxing)
 *fill*         0xc7e37211        0x3 00
 .rodata.str1.4
                0xc7e37214      0x323 common/libcommon.a(cmd_nvedit.o)
                                0x3b4 (size before relaxing)
 *fill*         0xc7e37537        0x1 00
 .rodata.str1.4
                0xc7e37538       0x2e common/libcommon.a(cmd_reginfo.o)
                                 0x30 (size before relaxing)
 *fill*         0xc7e37566        0x2 00
 .rodata.str1.4
                0xc7e37568       0x94 common/libcommon.a(cmd_usbd.o)
                                 0xa0 (size before relaxing)
 .rodata.str1.4
                0xc7e375fc      0x126 common/libcommon.a(cmd_ximg.o)
                                0x1c8 (size before relaxing)
 *fill*         0xc7e37722        0x2 00
 .rodata.str1.4
                0xc7e37724      0x324 common/libcommon.a(command.o)
                                0x34c (size before relaxing)
 .rodata.str1.4
                0xc7e37a48       0x81 common/libcommon.a(console.o)
                                 0x88 (size before relaxing)
 *fill*         0xc7e37ac9        0x3 00
 .rodata.str1.4
                0xc7e37acc       0x2f common/libcommon.a(devices.o)
                                 0x48 (size before relaxing)
 *fill*         0xc7e37afb        0x1 00
 .rodata.str1.4
                0xc7e37afc       0x33 common/libcommon.a(env_common.o)
                                 0x34 (size before relaxing)
 *fill*         0xc7e37b2f        0x1 00
 .rodata.str1.4
                0xc7e37b30      0x120 common/libcommon.a(flash.o)
 .rodata.str1.4
                0xc7e37c50      0x18d common/libcommon.a(hush.o)
                                0x1f0 (size before relaxing)
 *fill*         0xc7e37ddd        0x3 00
 .rodata.str1.4
                0xc7e37de0      0x278 common/libcommon.a(usb.o)
 .rodata.str1.4
                0xc7e38058       0xf1 common/libcommon.a(xyzModem.o)
                                 0xf8 (size before relaxing)
 *fill*         0xc7e38149        0x3 00
 .rodata.str1.4
                0xc7e3814c      0x31e common/libcommon.a(cmd_movi.o)
                                0x354 (size before relaxing)
 *fill*         0xc7e3846a        0x2 00
 .rodata.str1.4
                0xc7e3846c       0x13 common/libcommon.a(cmd_lcd.o)
                                 0x14 (size before relaxing)
 *fill*         0xc7e3847f        0x1 00
 .rodata.str1.4
                0xc7e38480      0xa44 common/libcommon.a(cmd_fastboot.o)
                                0xae8 (size before relaxing)
 .rodata.str1.4
                0xc7e38ec4      0x271 common/libcommon.a(cmd_mmc_fdisk.o)
                                0x278 (size before relaxing)
 *fill*         0xc7e39135        0x3 00
 .rodata.str1.4
                0xc7e39138      0x18d common/libcommon.a(env_auto.o)
                                0x198 (size before relaxing)
 *fill*         0xc7e392c5        0x3 00
 .rodata.str1.4
                0xc7e392c8       0x86 common/libcommon.a(gunzip.o)
                                 0x88 (size before relaxing)
 *fill*         0xc7e3934e        0x2 00
 .rodata.str1.4
                0xc7e39350       0x5b board/samsung/smdk6450/libsmdk6450.a(smdk6450.o)
                                 0x5c (size before relaxing)
 *fill*         0xc7e393ab        0x1 00
 .rodata.str1.4
                0xc7e393ac       0xf9 board/samsung/smdk6450/libsmdk6450.a(flash.o)
                                0x108 (size before relaxing)
 *fill*         0xc7e394a5        0x3 00
 .rodata.str1.4
                0xc7e394a8       0x17 lib_generic/libgeneric.a(display_options.o)
                                 0x48 (size before relaxing)
 *fill*         0xc7e394bf        0x1 00
 .rodata.str1.4
                0xc7e394c0       0x34 lib_generic/libgeneric.a(lmb.o)
 .rodata.str1.4
                0xc7e394f4       0x57 lib_generic/libgeneric.a(vsprintf.o)
                                 0x58 (size before relaxing)
 *fill*         0xc7e3954b        0x1 00
 .rodata.str1.4
                0xc7e3954c      0x20d lib_generic/libgeneric.a(zlib.o)
                                0x214 (size before relaxing)
 *fill*         0xc7e39759        0x3 00
 .rodata.str1.4
                0xc7e3975c       0xc5 cpu/s5p645x/libs5p645x.a(usb_ohci.o)
                                 0xc8 (size before relaxing)
 *fill*         0xc7e39821        0x3 00
 .rodata.str1.4
                0xc7e39824       0xbc cpu/s5p645x/libs5p645x.a(nand.o)
 .rodata.str1.4
                0xc7e398e0      0x14e cpu/s5p645x/libs5p645x.a(usbd-otg-hs.o)
                                0x158 (size before relaxing)
 *fill*         0xc7e39a2e        0x2 00
 .rodata.str1.4
                0xc7e39a30       0x5b cpu/s5p645x/libs5p645x.a(fastboot.o)
                                0x178 (size before relaxing)
 *fill*         0xc7e39a8b        0x1 00
 .rodata.str1.4
                0xc7e39a8c       0x6f lib_arm/libarm.a(bootm.o)
                                 0x7c (size before relaxing)
 *fill*         0xc7e39afb        0x1 00
 .rodata.str1.4
                0xc7e39afc      0x39a fs/fat/libfat.a(fat.o)
                                0x3b0 (size before relaxing)
 *fill*         0xc7e39e96        0x2 00
 .rodata.str1.4
                0xc7e39e98      0x527 fs/ext2/libext2fs.a(ext2fs.o)
                                0x5b8 (size before relaxing)
 *fill*         0xc7e3a3bf        0x1 00
 .rodata.str1.4
                0xc7e3a3c0       0xe1 fs/ext2/libext2fs.a(dev.o)
                                 0xe4 (size before relaxing)
 *fill*         0xc7e3a4a1        0x3 00
 .rodata.str1.4
                0xc7e3a4a4      0x189 disk/libdisk.a(part.o)
                                0x1b0 (size before relaxing)
 *fill*         0xc7e3a62d        0x3 00
 .rodata.str1.4
                0xc7e3a630       0xf9 disk/libdisk.a(part_dos.o)
                                0x10c (size before relaxing)
 *fill*         0xc7e3a729        0x3 00
 .rodata.str1.4
                0xc7e3a72c      0x558 drivers/mtd/nand/libnand.a(nand_util.o)
                                0x55c (size before relaxing)
                0xc7e3ac84                . = ALIGN (0x4)

.data           0xc7e3ac84     0x2b1c
 *(.data)
 .data          0xc7e3ac84        0x0 cpu/s5p645x/start.o
 .data          0xc7e3ac84        0x0 cpu/s5p645x/start_irom.o
 .data          0xc7e3ac84        0x0 cpu/s5p645x/s5p6450/cpu_init.o
 .data          0xc7e3ac84        0x0 board/samsung/smdk6450/lowlevel_init.o
 .data          0xc7e3ac84        0x0 cpu/s5p645x/nand_cp.o
 .data          0xc7e3ac84        0x0 cpu/s5p645x/movi.o
 .data          0xc7e3ac84        0x0 cpu/s5p645x/libs5p645x.a(interrupts.o)
 .data          0xc7e3ac84        0x0 cpu/s5p645x/libs5p645x.a(cpu.o)
 .data          0xc7e3ac84        0x0 cpu/s5p645x/libs5p645x.a(setup_hsmmc.o)
 .data          0xc7e3ac84        0x0 cpu/s5p645x/libs5p645x.a(serial.o)
 .data          0xc7e3ac84        0x0 cpu/s5p645x/s5p6450/libs5p6450.a(speed.o)
 .data          0xc7e3ac84        0x0 lib_arm/libarm.a(_udivsi3.o)
 .data          0xc7e3ac84       0x30 lib_arm/libarm.a(board.o)
                0xc7e3ac84                init_sequence
 .data          0xc7e3acb4        0x0 lib_arm/libarm.a(_divsi3.o)
 .data          0xc7e3acb4        0x0 lib_arm/libarm.a(_modsi3.o)
 .data          0xc7e3acb4        0xa net/libnet.a(net.o)
                0xc7e3acb4                NetBcastAddr
                0xc7e3acbc                NetOurNativeVLAN
                0xc7e3acba                NetOurVLAN
 .data          0xc7e3acbe        0x2 net/libnet.a(tftp.o)
 .data          0xc7e3acc0        0x0 net/libnet.a(bootp.o)
 .data          0xc7e3acc0        0x0 net/libnet.a(rarp.o)
 .data          0xc7e3acc0        0x0 net/libnet.a(eth.o)
 .data          0xc7e3acc0        0x4 net/libnet.a(nfs.o)
 .data          0xc7e3acc4        0x4 drivers/mmc/libmmc.a(mmc.o)
 .data          0xc7e3acc8        0x0 drivers/mmc/libmmc.a(s3c_hsmmc.o)
 .data          0xc7e3acc8        0x4 drivers/mtd/nand/libnand.a(nand.o)
                0xc7e3acc8                nand_curr_device
 .data          0xc7e3accc      0x940 drivers/mtd/nand/libnand.a(nand_base.o)
 .data          0xc7e3b60c      0x5c8 drivers/mtd/nand/libnand.a(nand_ids.o)
                0xc7e3bb94                nand_manuf_ids
                0xc7e3b60c                nand_flash_ids
 .data          0xc7e3bbd4        0x0 drivers/mtd/nand/libnand.a(nand_ecc.o)
 .data          0xc7e3bbd4      0x10c drivers/mtd/nand/libnand.a(nand_bbt.o)
 .data          0xc7e3bce0        0x0 drivers/net/libnet.a(dm9000x.o)
 .data          0xc7e3bce0        0x4 common/libcommon.a(main.o)
 .data          0xc7e3bce4        0x0 common/libcommon.a(cmd_autoscript.o)
 .data          0xc7e3bce4        0x0 common/libcommon.a(cmd_bdinfo.o)
 .data          0xc7e3bce4      0x1f8 common/libcommon.a(image.o)
 .data          0xc7e3bedc        0x0 common/libcommon.a(cmd_boot.o)
 .data          0xc7e3bedc        0x4 common/libcommon.a(cmd_bootm.o)
                0xc7e3bedc                load_addr
 .data          0xc7e3bee0        0x0 common/libcommon.a(cmd_cache.o)
 .data          0xc7e3bee0        0x0 common/libcommon.a(cmd_console.o)
 .data          0xc7e3bee0       0x1c common/libcommon.a(cmd_date.o)
                0xc7e3bee0                weekdays
 .data          0xc7e3befc        0x0 common/libcommon.a(cmd_elf.o)
 .data          0xc7e3befc        0x0 common/libcommon.a(cmd_ext2.o)
 .data          0xc7e3befc        0x0 common/libcommon.a(cmd_fat.o)
 .data          0xc7e3befc        0x0 common/libcommon.a(cmd_flash.o)
 .data          0xc7e3befc       0x68 common/libcommon.a(cmd_itest.o)
                0xc7e3befc                op_table
 .data          0xc7e3bf64        0x4 common/libcommon.a(cmd_load.o)
 .data          0xc7e3bf68        0x4 common/libcommon.a(cmd_mem.o)
                0xc7e3bf68                dp_last_length
 .data          0xc7e3bf6c        0x0 common/libcommon.a(cmd_misc.o)
 .data          0xc7e3bf6c        0x0 common/libcommon.a(cmd_mmc.o)
 .data          0xc7e3bf6c        0x0 common/libcommon.a(cmd_nand.o)
 .data          0xc7e3bf6c        0x0 common/libcommon.a(cmd_net.o)
 .data          0xc7e3bf6c        0x0 common/libcommon.a(cmd_nvedit.o)
 .data          0xc7e3bf6c        0x0 common/libcommon.a(cmd_reginfo.o)
 .data          0xc7e3bf6c        0x0 common/libcommon.a(cmd_usbd.o)
 .data          0xc7e3bf6c        0x0 common/libcommon.a(cmd_ximg.o)
 .data          0xc7e3bf6c        0x0 common/libcommon.a(command.o)
 .data          0xc7e3bf6c        0x0 common/libcommon.a(console.o)
 .data          0xc7e3bf6c        0xc common/libcommon.a(devices.o)
                0xc7e3bf6c                stdio_names
 .data          0xc7e3bf78      0x414 common/libcommon.a(dlmalloc.o)
 .data          0xc7e3c38c      0x10c common/libcommon.a(env_common.o)
                0xc7e3c38c                default_environment
                0xc7e3c494                default_environment_size
 .data          0xc7e3c498        0x0 common/libcommon.a(exports.o)
 .data          0xc7e3c498        0x0 common/libcommon.a(flash.o)
 .data          0xc7e3c498       0x84 common/libcommon.a(hush.o)
 .data          0xc7e3c51c        0x0 common/libcommon.a(lists.o)
 .data          0xc7e3c51c        0x0 common/libcommon.a(s_record.o)
 .data          0xc7e3c51c        0x0 common/libcommon.a(usb.o)
 .data          0xc7e3c51c        0x0 common/libcommon.a(xyzModem.o)
 .data          0xc7e3c51c        0x0 common/libcommon.a(cmd_movi.o)
 .data          0xc7e3c51c        0x0 common/libcommon.a(cmd_lcd.o)
 .data          0xc7e3c51c       0x1c common/libcommon.a(cmd_fastboot.o)
 .data          0xc7e3c538        0x0 common/libcommon.a(cmd_mmc_fdisk.o)
 .data          0xc7e3c538        0x4 common/libcommon.a(env_auto.o)
                0xc7e3c538                env_name_spec
 .data          0xc7e3c53c        0x0 common/libcommon.a(gunzip.o)
 .data          0xc7e3c53c        0x0 common/libcommon.a(crc16.o)
 .data          0xc7e3c53c        0x0 board/samsung/smdk6450/libsmdk6450.a(smdk6450.o)
 .data          0xc7e3c53c        0x0 board/samsung/smdk6450/libsmdk6450.a(flash.o)
 .data          0xc7e3c53c        0x0 lib_generic/libgeneric.a(crc32.o)
 .data          0xc7e3c53c      0x100 lib_generic/libgeneric.a(ctype.o)
                0xc7e3c53c                _ctype
 .data          0xc7e3c63c        0x0 lib_generic/libgeneric.a(display_options.o)
 .data          0xc7e3c63c        0x0 lib_generic/libgeneric.a(lmb.o)
 .data          0xc7e3c63c        0x0 lib_generic/libgeneric.a(string.o)
 .data          0xc7e3c63c        0x0 lib_generic/libgeneric.a(vsprintf.o)
 .data          0xc7e3c63c      0x210 lib_generic/libgeneric.a(zlib.o)
                0xc7e3c63c                zlib_version
                0xc7e3c640                z_errmsg
 .data          0xc7e3c84c        0x0 cpu/s5p645x/libs5p645x.a(usb_ohci.o)
 .data          0xc7e3c84c      0x6f0 cpu/s5p645x/libs5p645x.a(nand.o)
 .data          0xc7e3cf3c       0x35 cpu/s5p645x/libs5p645x.a(usbd-otg-hs.o)
                0xc7e3cf3c                test_pkt
 *fill*         0xc7e3cf71        0x3 00
 .data          0xc7e3cf74      0x100 cpu/s5p645x/libs5p645x.a(fastboot.o)
                0xc7e3d03c                fboot_test_pkt
                0xc7e3d038                ptable_default_size
                0xc7e3cf74                ptable_default
 .data          0xc7e3d074        0x0 lib_arm/libarm.a(_ashldi3.o)
 .data          0xc7e3d074        0x0 lib_arm/libarm.a(_ashrdi3.o)
 .data          0xc7e3d074        0x0 lib_arm/libarm.a(_umodsi3.o)
 .data          0xc7e3d074        0x0 lib_arm/libarm.a(bootm.o)
 .data          0xc7e3d074        0x0 lib_arm/libarm.a(cache.o)
 .data          0xc7e3d074        0x4 fs/fat/libfat.a(fat.o)
 .data          0xc7e3d078        0x8 fs/ext2/libext2fs.a(ext2fs.o)
                0xc7e3d078                indir1_blkno
                0xc7e3d07c                indir2_blkno
 .data          0xc7e3d080        0x0 fs/ext2/libext2fs.a(dev.o)
 .data          0xc7e3d080        0x0 disk/libdisk.a(part.o)
 .data          0xc7e3d080        0x0 disk/libdisk.a(part_dos.o)
 .data          0xc7e3d080      0x6f0 drivers/mtd/nand/libnand.a(nand_util.o)
 .data          0xc7e3d770       0x30 drivers/rtc/librtc.a(date.o)
 .data          0xc7e3d7a0        0x0 drivers/rtc/librtc.a(s5p64xx_rtc.o)
 .data          0xc7e3d7a0        0x0 lib_generic/libgeneric.a(div64.o)
                0xc7e3d7a0                . = ALIGN (0x4)

.got
 *(.got)
                0xc7e3d7a0                __u_boot_cmd_start = .

.u_boot_cmd     0xc7e3d7a0      0x690
 *(.u_boot_cmd)
 .u_boot_cmd    0xc7e3d7a0       0x18 common/libcommon.a(cmd_autoscript.o)
                0xc7e3d7a0                __u_boot_cmd_autoscr
 .u_boot_cmd    0xc7e3d7b8       0x18 common/libcommon.a(cmd_bdinfo.o)
                0xc7e3d7b8                __u_boot_cmd_bdinfo
 .u_boot_cmd    0xc7e3d7d0       0x48 common/libcommon.a(cmd_boot.o)
                0xc7e3d7e8                __u_boot_cmd_reset
                0xc7e3d800                __u_boot_cmd_re
                0xc7e3d7d0                __u_boot_cmd_go
 .u_boot_cmd    0xc7e3d818       0x78 common/libcommon.a(cmd_bootm.o)
                0xc7e3d818                __u_boot_cmd_bootm
                0xc7e3d860                __u_boot_cmd_iminfo
                0xc7e3d848                __u_boot_cmd_bootd
                0xc7e3d830                __u_boot_cmd_boot
                0xc7e3d878                __u_boot_cmd_imls
 .u_boot_cmd    0xc7e3d890       0x30 common/libcommon.a(cmd_cache.o)
                0xc7e3d8a8                __u_boot_cmd_dcache
                0xc7e3d890                __u_boot_cmd_icache
 .u_boot_cmd    0xc7e3d8c0       0x18 common/libcommon.a(cmd_console.o)
                0xc7e3d8c0                __u_boot_cmd_coninfo
 .u_boot_cmd    0xc7e3d8d8       0x18 common/libcommon.a(cmd_date.o)
                0xc7e3d8d8                __u_boot_cmd_date
 .u_boot_cmd    0xc7e3d8f0       0x30 common/libcommon.a(cmd_elf.o)
                0xc7e3d908                __u_boot_cmd_bootvx
                0xc7e3d8f0                __u_boot_cmd_bootelf
 .u_boot_cmd    0xc7e3d920       0x60 common/libcommon.a(cmd_ext2.o)
                0xc7e3d938                __u_boot_cmd_ext2load
                0xc7e3d920                __u_boot_cmd_ext2ls
                0xc7e3d968                __u_boot_cmd_ext3format
                0xc7e3d950                __u_boot_cmd_ext2format
 .u_boot_cmd    0xc7e3d980       0x60 common/libcommon.a(cmd_fat.o)
                0xc7e3d9b0                __u_boot_cmd_fatinfo
                0xc7e3d9c8                __u_boot_cmd_fatformat
                0xc7e3d980                __u_boot_cmd_fatload
                0xc7e3d998                __u_boot_cmd_fatls
 .u_boot_cmd    0xc7e3d9e0       0x48 common/libcommon.a(cmd_flash.o)
                0xc7e3d9e0                __u_boot_cmd_flinfo
                0xc7e3d9f8                __u_boot_cmd_erase
                0xc7e3da10                __u_boot_cmd_protect
 .u_boot_cmd    0xc7e3da28       0x18 common/libcommon.a(cmd_itest.o)
                0xc7e3da28                __u_boot_cmd_itest
 .u_boot_cmd    0xc7e3da40       0x48 common/libcommon.a(cmd_load.o)
                0xc7e3da70                __u_boot_cmd_loady
                0xc7e3da58                __u_boot_cmd_loadb
                0xc7e3da40                __u_boot_cmd_loads
 .u_boot_cmd    0xc7e3da88       0xf0 common/libcommon.a(cmd_mem.o)
                0xc7e3da88                __u_boot_cmd_md
                0xc7e3db00                __u_boot_cmd_cmp
                0xc7e3dad0                __u_boot_cmd_mw
                0xc7e3db48                __u_boot_cmd_loop
                0xc7e3db30                __u_boot_cmd_base
                0xc7e3daa0                __u_boot_cmd_mm
                0xc7e3db18                __u_boot_cmd_crc32
                0xc7e3dab8                __u_boot_cmd_nm
                0xc7e3db60                __u_boot_cmd_mtest
                0xc7e3dae8                __u_boot_cmd_cp
 .u_boot_cmd    0xc7e3db78       0x18 common/libcommon.a(cmd_misc.o)
                0xc7e3db78                __u_boot_cmd_sleep
 .u_boot_cmd    0xc7e3db90       0x30 common/libcommon.a(cmd_mmc.o)
                0xc7e3dba8                __u_boot_cmd_mmc
                0xc7e3db90                __u_boot_cmd_mmcinfo
 .u_boot_cmd    0xc7e3dbc0       0x30 common/libcommon.a(cmd_nand.o)
                0xc7e3dbc0                __u_boot_cmd_nand
                0xc7e3dbd8                __u_boot_cmd_nboot
 .u_boot_cmd    0xc7e3dbf0       0x90 common/libcommon.a(cmd_net.o)
                0xc7e3dc50                __u_boot_cmd_nfs
                0xc7e3dc68                __u_boot_cmd_ping
                0xc7e3dc20                __u_boot_cmd_rarpboot
                0xc7e3dc08                __u_boot_cmd_tftpboot
                0xc7e3dbf0                __u_boot_cmd_bootp
                0xc7e3dc38                __u_boot_cmd_dhcp
 .u_boot_cmd    0xc7e3dc80       0x60 common/libcommon.a(cmd_nvedit.o)
                0xc7e3dcc8                __u_boot_cmd_run
                0xc7e3dcb0                __u_boot_cmd_saveenv
                0xc7e3dc80                __u_boot_cmd_printenv
                0xc7e3dc98                __u_boot_cmd_setenv
 .u_boot_cmd    0xc7e3dce0       0x18 common/libcommon.a(cmd_reginfo.o)
                0xc7e3dce0                __u_boot_cmd_reginfo
 .u_boot_cmd    0xc7e3dcf8       0x18 common/libcommon.a(cmd_usbd.o)
                0xc7e3dcf8                __u_boot_cmd_dnw
 .u_boot_cmd    0xc7e3dd10       0x18 common/libcommon.a(cmd_ximg.o)
                0xc7e3dd10                __u_boot_cmd_imxtract
 .u_boot_cmd    0xc7e3dd28       0x90 common/libcommon.a(command.o)
                0xc7e3dd70                __u_boot_cmd_exit
                0xc7e3dd40                __u_boot_cmd_echo
                0xc7e3dda0                __u_boot_cmd_question_mark
                0xc7e3dd28                __u_boot_cmd_version
                0xc7e3dd88                __u_boot_cmd_help
                0xc7e3dd58                __u_boot_cmd_test
 .u_boot_cmd    0xc7e3ddb8       0x18 common/libcommon.a(cmd_movi.o)
                0xc7e3ddb8                __u_boot_cmd_movi
 .u_boot_cmd    0xc7e3ddd0       0x18 common/libcommon.a(cmd_lcd.o)
                0xc7e3ddd0                __u_boot_cmd_lcd
 .u_boot_cmd    0xc7e3dde8       0x30 common/libcommon.a(cmd_fastboot.o)
                0xc7e3dde8                __u_boot_cmd_fastboot
                0xc7e3de00                __u_boot_cmd_sdfuse
 .u_boot_cmd    0xc7e3de18       0x18 common/libcommon.a(cmd_mmc_fdisk.o)
                0xc7e3de18                __u_boot_cmd_fdisk
                0xc7e3de30                __u_boot_cmd_end = .
                0xc7e3de30                . = ALIGN (0x4)

.mmudata        0xc7e40000     0x4000
 *(.mmudata)
 .mmudata       0xc7e40000     0x4000 board/samsung/smdk6450/lowlevel_init.o
                0xc7e40000                mmu_table
                0xc7e44000                . = ALIGN (0x4)
                0xc7e44000                __bss_start = .

.bss            0xc7e44000    0x457a8
 *(.bss)
 .bss           0xc7e44000        0x0 cpu/s5p645x/start.o
 .bss           0xc7e44000        0x0 cpu/s5p645x/start_irom.o
 .bss           0xc7e44000        0x0 cpu/s5p645x/s5p6450/cpu_init.o
 .bss           0xc7e44000        0x0 board/samsung/smdk6450/lowlevel_init.o
 .bss           0xc7e44000        0x0 cpu/s5p645x/nand_cp.o
 .bss           0xc7e44000        0x0 cpu/s5p645x/movi.o
 .bss           0xc7e44000        0xc cpu/s5p645x/libs5p645x.a(interrupts.o)
                0xc7e44000                timer_load_val
 .bss           0xc7e4400c        0x0 cpu/s5p645x/libs5p645x.a(cpu.o)
 .bss           0xc7e4400c        0x0 cpu/s5p645x/libs5p645x.a(setup_hsmmc.o)
 .bss           0xc7e4400c        0x0 cpu/s5p645x/libs5p645x.a(serial.o)
 .bss           0xc7e4400c        0x0 cpu/s5p645x/s5p6450/libs5p6450.a(speed.o)
 .bss           0xc7e4400c        0x0 lib_arm/libarm.a(_udivsi3.o)
 .bss           0xc7e4400c       0x18 lib_arm/libarm.a(board.o)
                0xc7e44014                monitor_flash_len
                0xc7e44010                movi_emmc
                0xc7e4400c                movi_ch
 .bss           0xc7e44024        0x0 lib_arm/libarm.a(_divsi3.o)
 .bss           0xc7e44024        0x0 lib_arm/libarm.a(_modsi3.o)
 .bss           0xc7e44024     0x25d0 net/libnet.a(net.o)
                0xc7e465d4                NetArpWaitTry
                0xc7e45fa4                NetArpWaitPacketMAC
                0xc7e440c8                NetOurEther
                0xc7e440d0                NetOurIP
                0xc7e44178                NetPingIP
                0xc7e440d4                NetServerIP
                0xc7e45fac                NetArpWaitTxPacketSize
                0xc7e45fa0                NetArpWaitReplyIP
                0xc7e440d8                NetRxPackets
                0xc7e45fa8                NetArpWaitTxPacket
                0xc7e44030                NetOurNISDomain
                0xc7e45f9c                NetArpWaitPacketIP
                0xc7e440f4                NetState
                0xc7e440f8                BootFile
                0xc7e440b2                NetServerEther
                0xc7e44024                NetOurSubnetMask
                0xc7e440b0                NetBootFileSize
                0xc7e440f0                NetIPID
                0xc7e44050                NetOurHostName
                0xc7e440e8                NetRxPkt
                0xc7e44028                NetOurGatewayIP
                0xc7e440b8                NetEtherNullAddr
                0xc7e45fb0                NetArpWaitPacketBuf
                0xc7e440ec                NetRxPktLen
                0xc7e440c0                NetTxPacket
                0xc7e440c4                NetBootFileXferSize
                0xc7e4402c                NetOurDNSIP
                0xc7e4417c                PktBuf
                0xc7e44070                NetOurRootPath
                0xc7e465d0                NetArpWaitTimerStart
 .bss           0xc7e465f4       0xb4 net/libnet.a(tftp.o)
 .bss           0xc7e466a8       0x14 net/libnet.a(bootp.o)
                0xc7e466b0                NetDHCPServerIP
                0xc7e466a8                dhcp_state
                0xc7e466b8                BootpTry
                0xc7e466b4                BootpID
                0xc7e466ac                dhcp_leasetime
 .bss           0xc7e466bc        0x4 net/libnet.a(rarp.o)
                0xc7e466bc                RarpTry
 .bss           0xc7e466c0        0x0 net/libnet.a(eth.o)
 .bss           0xc7e466c0      0x8b0 net/libnet.a(nfs.o)
 .bss           0xc7e46f70       0x18 drivers/mmc/libmmc.a(mmc.o)
                0xc7e46f7c                mmc_default
                0xc7e46f70                mmc_global
 .bss           0xc7e46f88      0x3cc drivers/mmc/libmmc.a(s3c_hsmmc.o)
                0xc7e472b8                mmc_host
                0xc7e46f88                mmc_channel
 .bss           0xc7e47354      0x1b8 drivers/mtd/nand/libnand.a(nand.o)
                0xc7e47354                nand_info
 .bss           0xc7e4750c        0x0 drivers/mtd/nand/libnand.a(nand_base.o)
 .bss           0xc7e4750c        0x0 drivers/mtd/nand/libnand.a(nand_ids.o)
 .bss           0xc7e4750c        0x0 drivers/mtd/nand/libnand.a(nand_ecc.o)
 .bss           0xc7e4750c        0x0 drivers/mtd/nand/libnand.a(nand_bbt.o)
 .bss           0xc7e4750c       0xb0 drivers/net/libnet.a(dm9000x.o)
 .bss           0xc7e475bc     0x1560 common/libcommon.a(main.o)
                0xc7e475c0                console_buffer
                0xc7e476c0                hist_list
                0xc7e47710                hist_lines
                0xc7e475bc                hist_num
 .bss           0xc7e48b1c        0x0 common/libcommon.a(cmd_autoscript.o)
 .bss           0xc7e48b1c        0x0 common/libcommon.a(cmd_bdinfo.o)
 .bss           0xc7e48b1c        0x0 common/libcommon.a(image.o)
 .bss           0xc7e48b1c        0x0 common/libcommon.a(cmd_boot.o)
 .bss           0xc7e48b1c       0x50 common/libcommon.a(cmd_bootm.o)
 .bss           0xc7e48b6c        0x0 common/libcommon.a(cmd_cache.o)
 .bss           0xc7e48b6c        0x0 common/libcommon.a(cmd_console.o)
 .bss           0xc7e48b6c        0x0 common/libcommon.a(cmd_date.o)
 .bss           0xc7e48b6c        0x0 common/libcommon.a(cmd_elf.o)
 .bss           0xc7e48b6c        0x0 common/libcommon.a(cmd_ext2.o)
 .bss           0xc7e48b6c        0x0 common/libcommon.a(cmd_fat.o)
 .bss           0xc7e48b6c        0x0 common/libcommon.a(cmd_flash.o)
 .bss           0xc7e48b6c        0x0 common/libcommon.a(cmd_itest.o)
 .bss           0xc7e48b6c       0x68 common/libcommon.a(cmd_load.o)
                0xc7e48b78                his_pad_char
                0xc7e48b6c                os_data_count
                0xc7e48b7c                os_data_init
                0xc7e48b98                send_ptr
                0xc7e48b80                os_data_char
                0xc7e48b70                his_eol
                0xc7e48b79                his_quote
                0xc7e48b84                send_parms
                0xc7e48b74                his_pad_count
 .bss           0xc7e48bd4       0x14 common/libcommon.a(cmd_mem.o)
                0xc7e48bd8                dp_last_size
                0xc7e48bd4                dp_last_addr
                0xc7e48be0                mm_last_size
                0xc7e48bdc                mm_last_addr
 .bss           0xc7e48be8        0x0 common/libcommon.a(cmd_misc.o)
 .bss           0xc7e48be8        0x0 common/libcommon.a(cmd_mmc.o)
 .bss           0xc7e48be8        0x0 common/libcommon.a(cmd_nand.o)
 .bss           0xc7e48be8        0x0 common/libcommon.a(cmd_net.o)
 .bss           0xc7e48be8        0x0 common/libcommon.a(cmd_nvedit.o)
 .bss           0xc7e48be8        0x0 common/libcommon.a(cmd_reginfo.o)
 .bss           0xc7e48be8        0x0 common/libcommon.a(cmd_usbd.o)
 .bss           0xc7e48be8        0x0 common/libcommon.a(cmd_ximg.o)
 .bss           0xc7e48be8        0x0 common/libcommon.a(command.o)
 .bss           0xc7e48be8        0x8 common/libcommon.a(console.o)
 .bss           0xc7e48bf0       0x10 common/libcommon.a(devices.o)
                0xc7e48bf0                devlist
                0xc7e48bf4                stdio_devices
 .bss           0xc7e48c00       0x38 common/libcommon.a(dlmalloc.o)
 .bss           0xc7e48c38        0x0 common/libcommon.a(env_common.o)
 .bss           0xc7e48c38        0x0 common/libcommon.a(exports.o)
 .bss           0xc7e48c38        0x0 common/libcommon.a(flash.o)
 .bss           0xc7e48c38      0x258 common/libcommon.a(hush.o)
                0xc7e48c3c                nesting_level
                0xc7e48c38                last_return_code
 .bss           0xc7e48e90        0x0 common/libcommon.a(lists.o)
 .bss           0xc7e48e90        0x0 common/libcommon.a(s_record.o)
 .bss           0xc7e48e90     0xc99c common/libcommon.a(usb.o)
                0xc7e48e90                usb_started
 .bss           0xc7e5582c      0x43c common/libcommon.a(xyzModem.o)
 .bss           0xc7e55c68      0x200 common/libcommon.a(cmd_movi.o)
                0xc7e55c68                raw_area_control
 .bss           0xc7e55e68        0x0 common/libcommon.a(cmd_lcd.o)
 .bss           0xc7e55e68      0x1d0 common/libcommon.a(cmd_fastboot.o)
 .bss           0xc7e56038      0x200 common/libcommon.a(cmd_mmc_fdisk.o)
                0xc7e56038                mbr
 .bss           0xc7e56238        0x4 common/libcommon.a(env_auto.o)
                0xc7e56238                env_ptr
 .bss           0xc7e5623c        0x0 common/libcommon.a(gunzip.o)
 .bss           0xc7e5623c        0x0 common/libcommon.a(crc16.o)
 .bss           0xc7e5623c        0x0 board/samsung/smdk6450/libsmdk6450.a(smdk6450.o)
 .bss           0xc7e5623c        0x4 board/samsung/smdk6450/libsmdk6450.a(flash.o)
                0xc7e5623c                flash_info
 .bss           0xc7e56240        0x0 lib_generic/libgeneric.a(crc32.o)
 .bss           0xc7e56240        0x0 lib_generic/libgeneric.a(ctype.o)
 .bss           0xc7e56240        0x0 lib_generic/libgeneric.a(display_options.o)
 .bss           0xc7e56240        0x0 lib_generic/libgeneric.a(lmb.o)
 .bss           0xc7e56240        0x4 lib_generic/libgeneric.a(string.o)
                0xc7e56240                ___strtok
 .bss           0xc7e56244        0x0 lib_generic/libgeneric.a(vsprintf.o)
 .bss           0xc7e56244     0x10a8 lib_generic/libgeneric.a(zlib.o)
 *fill*         0xc7e572ec       0x14 00
 .bss           0xc7e57300     0x1600 cpu/s5p645x/libs5p645x.a(usb_ohci.o)
                0xc7e58774                got_rhsc
                0xc7e57300                gtd
                0xc7e58510                ohci_dev
                0xc7e58778                devgone
                0xc7e58340                ptd
                0xc7e58500                phcca
                0xc7e586a0                urb_priv
                0xc7e58400                ghcca
 .bss           0xc7e58900        0xc cpu/s5p645x/libs5p645x.a(nand.o)
                0xc7e58904                cur_ecc_mode
                0xc7e58908                nand_type
                0xc7e58900                boot_nand
 .bss           0xc7e5890c       0xa8 cpu/s5p645x/libs5p645x.a(usbd-otg-hs.o)
                0xc7e58924                remode_wakeup
                0xc7e589ae                get_status
                0xc7e58914                op_mode
                0xc7e589b3                get_intf
                0xc7e58910                s3c_got_header
                0xc7e58928                config_value
                0xc7e5890c                s3c_receive_done
                0xc7e5891c                s3c_usbd_dn_addr
                0xc7e58918                speed
                0xc7e58920                DNW
                0xc7e5892a                otg
 .bss           0xc7e589b4      0x2ec cpu/s5p645x/libs5p645x.a(fastboot.o)
                0xc7e589d0                tx_msg_buf
                0xc7e589bc                fboot_usbd_dn_cnt
                0xc7e589c0                fboot_receive_done
                0xc7e589cc                fboot_speed
                0xc7e589e0                fboot_remode_wakeup
                0xc7e589d4                total_dn_size
                0xc7e589dc                transfer_size
                0xc7e589c4                fboot_got_header
                0xc7e589d8                reply_msg
                0xc7e589e6                fboot_otg
                0xc7e58a6a                fboot_get_status
                0xc7e589e4                fboot_config_value
                0xc7e589b4                fboot_response_flag
                0xc7e589b8                fboot_usbd_dn_addr
                0xc7e58a6f                fboot_get_intf
                0xc7e589c8                fboot_op_mode
 .bss           0xc7e58ca0        0x0 lib_arm/libarm.a(_ashldi3.o)
 .bss           0xc7e58ca0        0x0 lib_arm/libarm.a(_ashrdi3.o)
 .bss           0xc7e58ca0        0x0 lib_arm/libarm.a(_umodsi3.o)
 .bss           0xc7e58ca0        0x4 lib_arm/libarm.a(bootm.o)
 .bss           0xc7e58ca4        0x0 lib_arm/libarm.a(cache.o)
 .bss           0xc7e58ca4    0x30008 fs/fat/libfat.a(fat.o)
                0xc7e58ca4                get_vfatname_block
                0xc7e68ca4                get_dentfromdir_block
                0xc7e78ca4                do_fat_read_block
 .bss           0xc7e88cac       0x1c fs/ext2/libext2fs.a(ext2fs.o)
                0xc7e88cb0                ext2fs_file
                0xc7e88cb4                symlinknest
                0xc7e88cbc                indir1_size
                0xc7e88cb8                indir1_block
                0xc7e88cc0                indir2_block
                0xc7e88cac                ext2fs_root
                0xc7e88cc4                indir2_size
 .bss           0xc7e88cc8       0x50 fs/ext2/libext2fs.a(dev.o)
 .bss           0xc7e88d18        0x0 disk/libdisk.a(part.o)
 .bss           0xc7e88d18        0x0 disk/libdisk.a(part_dos.o)
 .bss           0xc7e88d18      0xa90 drivers/mtd/nand/libnand.a(nand_util.o)
 .bss           0xc7e897a8        0x0 drivers/rtc/librtc.a(date.o)
 .bss           0xc7e897a8        0x0 drivers/rtc/librtc.a(s5p64xx_rtc.o)
 .bss           0xc7e897a8        0x0 lib_generic/libgeneric.a(div64.o)
                0xc7e897a8                _end = .
Address of section .text set to 0xc7e00000
LOAD cpu/s5p645x/start.o
START GROUP
LOAD lib_generic/libgeneric.a
LOAD cpu/s5p645x/libs5p645x.a
LOAD cpu/s5p645x/s5p6450/libs5p6450.a
LOAD lib_arm/libarm.a
LOAD fs/cramfs/libcramfs.a
LOAD fs/fat/libfat.a
LOAD fs/fdos/libfdos.a
LOAD fs/jffs2/libjffs2.a
LOAD fs/reiserfs/libreiserfs.a
LOAD fs/ext2/libext2fs.a
LOAD net/libnet.a
LOAD disk/libdisk.a
LOAD drivers/bios_emulator/libatibiosemu.a
LOAD drivers/block/libblock.a
LOAD drivers/dma/libdma.a
LOAD drivers/hwmon/libhwmon.a
LOAD drivers/i2c/libi2c.a
LOAD drivers/input/libinput.a
LOAD drivers/misc/libmisc.a
LOAD drivers/mmc/libmmc.a
LOAD drivers/mtd/libmtd.a
LOAD drivers/mtd/nand/libnand.a
LOAD drivers/mtd/nand_legacy/libnand_legacy.a
LOAD drivers/mtd/onenand/libonenand.a
LOAD drivers/mtd/spi/libspi_flash.a
LOAD drivers/net/libnet.a
LOAD drivers/net/sk98lin/libsk98lin.a
LOAD drivers/pci/libpci.a
LOAD drivers/pcmcia/libpcmcia.a
LOAD drivers/spi/libspi.a
LOAD drivers/rtc/librtc.a
LOAD drivers/serial/libserial.a
LOAD drivers/usb/libusb.a
LOAD drivers/video/libvideo.a
LOAD common/libcommon.a
LOAD libfdt/libfdt.a
LOAD api/libapi.a
LOAD post/libpost.a
LOAD board/samsung/smdk6450/libsmdk6450.a
END GROUP
LOAD /usr/local/arm/4.2.2-eabi/usr/bin-ccache/../lib/gcc/arm-unknown-linux-gnueabi/4.2.2/libgcc.a
OUTPUT(u-boot elf32-littlearm)

.ARM.attributes
                0x00000000       0x10
 .ARM.attributes
                0x00000000       0x10 cpu/s5p645x/start.o
 .ARM.attributes
                0x00000010       0x10 cpu/s5p645x/start_irom.o
 .ARM.attributes
                0x00000020       0x10 cpu/s5p645x/s5p6450/cpu_init.o
 .ARM.attributes
                0x00000030       0x10 board/samsung/smdk6450/lowlevel_init.o
 .ARM.attributes
                0x00000040       0x10 cpu/s5p645x/nand_cp.o
 .ARM.attributes
                0x00000050       0x10 cpu/s5p645x/movi.o
 .ARM.attributes
                0x00000060       0x10 cpu/s5p645x/libs5p645x.a(interrupts.o)
 .ARM.attributes
                0x00000070       0x10 cpu/s5p645x/libs5p645x.a(cpu.o)
 .ARM.attributes
                0x00000080       0x10 cpu/s5p645x/libs5p645x.a(setup_hsmmc.o)
 .ARM.attributes
                0x00000090       0x10 cpu/s5p645x/libs5p645x.a(serial.o)
 .ARM.attributes
                0x000000a0       0x10 cpu/s5p645x/s5p6450/libs5p6450.a(speed.o)
 .ARM.attributes
                0x000000b0       0x10 lib_arm/libarm.a(_udivsi3.o)
 .ARM.attributes
                0x000000c0       0x10 lib_arm/libarm.a(board.o)
 .ARM.attributes
                0x000000d0       0x10 lib_arm/libarm.a(_divsi3.o)
 .ARM.attributes
                0x000000e0       0x10 lib_arm/libarm.a(_modsi3.o)
 .ARM.attributes
                0x000000f0       0x10 net/libnet.a(net.o)
 .ARM.attributes
                0x00000100       0x10 net/libnet.a(tftp.o)
 .ARM.attributes
                0x00000110       0x10 net/libnet.a(bootp.o)
 .ARM.attributes
                0x00000120       0x10 net/libnet.a(rarp.o)
 .ARM.attributes
                0x00000130       0x10 net/libnet.a(eth.o)
 .ARM.attributes
                0x00000140       0x10 net/libnet.a(nfs.o)
 .ARM.attributes
                0x00000150       0x10 drivers/mmc/libmmc.a(mmc.o)
 .ARM.attributes
                0x00000160       0x10 drivers/mmc/libmmc.a(s3c_hsmmc.o)
 .ARM.attributes
                0x00000170       0x10 drivers/mtd/nand/libnand.a(nand.o)
 .ARM.attributes
                0x00000180       0x10 drivers/mtd/nand/libnand.a(nand_base.o)
 .ARM.attributes
                0x00000190       0x10 drivers/mtd/nand/libnand.a(nand_ids.o)
 .ARM.attributes
                0x000001a0       0x10 drivers/mtd/nand/libnand.a(nand_ecc.o)
 .ARM.attributes
                0x000001b0       0x10 drivers/mtd/nand/libnand.a(nand_bbt.o)
 .ARM.attributes
                0x000001c0       0x10 drivers/net/libnet.a(dm9000x.o)
 .ARM.attributes
                0x000001d0       0x10 common/libcommon.a(main.o)
 .ARM.attributes
                0x000001e0       0x10 common/libcommon.a(cmd_autoscript.o)
 .ARM.attributes
                0x000001f0       0x10 common/libcommon.a(cmd_bdinfo.o)
 .ARM.attributes
                0x00000200       0x10 common/libcommon.a(image.o)
 .ARM.attributes
                0x00000210       0x10 common/libcommon.a(cmd_boot.o)
 .ARM.attributes
                0x00000220       0x10 common/libcommon.a(cmd_bootm.o)
 .ARM.attributes
                0x00000230       0x10 common/libcommon.a(cmd_cache.o)
 .ARM.attributes
                0x00000240       0x10 common/libcommon.a(cmd_console.o)
 .ARM.attributes
                0x00000250       0x10 common/libcommon.a(cmd_date.o)
 .ARM.attributes
                0x00000260       0x10 common/libcommon.a(cmd_elf.o)
 .ARM.attributes
                0x00000270       0x10 common/libcommon.a(cmd_ext2.o)
 .ARM.attributes
                0x00000280       0x10 common/libcommon.a(cmd_fat.o)
 .ARM.attributes
                0x00000290       0x10 common/libcommon.a(cmd_flash.o)
 .ARM.attributes
                0x000002a0       0x10 common/libcommon.a(cmd_itest.o)
 .ARM.attributes
                0x000002b0       0x10 common/libcommon.a(cmd_load.o)
 .ARM.attributes
                0x000002c0       0x10 common/libcommon.a(cmd_mem.o)
 .ARM.attributes
                0x000002d0       0x10 common/libcommon.a(cmd_misc.o)
 .ARM.attributes
                0x000002e0       0x10 common/libcommon.a(cmd_mmc.o)
 .ARM.attributes
                0x000002f0       0x10 common/libcommon.a(cmd_nand.o)
 .ARM.attributes
                0x00000300       0x10 common/libcommon.a(cmd_net.o)
 .ARM.attributes
                0x00000310       0x10 common/libcommon.a(cmd_nvedit.o)
 .ARM.attributes
                0x00000320       0x10 common/libcommon.a(cmd_reginfo.o)
 .ARM.attributes
                0x00000330       0x10 common/libcommon.a(cmd_usbd.o)
 .ARM.attributes
                0x00000340       0x10 common/libcommon.a(cmd_ximg.o)
 .ARM.attributes
                0x00000350       0x10 common/libcommon.a(command.o)
 .ARM.attributes
                0x00000360       0x10 common/libcommon.a(console.o)
 .ARM.attributes
                0x00000370       0x10 common/libcommon.a(devices.o)
 .ARM.attributes
                0x00000380       0x10 common/libcommon.a(dlmalloc.o)
 .ARM.attributes
                0x00000390       0x10 common/libcommon.a(env_common.o)
 .ARM.attributes
                0x000003a0       0x10 common/libcommon.a(exports.o)
 .ARM.attributes
                0x000003b0       0x10 common/libcommon.a(flash.o)
 .ARM.attributes
                0x000003c0       0x10 common/libcommon.a(hush.o)
 .ARM.attributes
                0x000003d0       0x10 common/libcommon.a(lists.o)
 .ARM.attributes
                0x000003e0       0x10 common/libcommon.a(s_record.o)
 .ARM.attributes
                0x000003f0       0x10 common/libcommon.a(usb.o)
 .ARM.attributes
                0x00000400       0x10 common/libcommon.a(xyzModem.o)
 .ARM.attributes
                0x00000410       0x10 common/libcommon.a(cmd_movi.o)
 .ARM.attributes
                0x00000420       0x10 common/libcommon.a(cmd_lcd.o)
 .ARM.attributes
                0x00000430       0x10 common/libcommon.a(cmd_fastboot.o)
 .ARM.attributes
                0x00000440       0x10 common/libcommon.a(cmd_mmc_fdisk.o)
 .ARM.attributes
                0x00000450       0x10 common/libcommon.a(env_auto.o)
 .ARM.attributes
                0x00000460       0x10 common/libcommon.a(gunzip.o)
 .ARM.attributes
                0x00000470       0x10 common/libcommon.a(crc16.o)
 .ARM.attributes
                0x00000480       0x10 board/samsung/smdk6450/libsmdk6450.a(smdk6450.o)
 .ARM.attributes
                0x00000490       0x10 board/samsung/smdk6450/libsmdk6450.a(flash.o)
 .ARM.attributes
                0x000004a0       0x10 lib_generic/libgeneric.a(crc32.o)
 .ARM.attributes
                0x000004b0       0x10 lib_generic/libgeneric.a(ctype.o)
 .ARM.attributes
                0x000004c0       0x10 lib_generic/libgeneric.a(display_options.o)
 .ARM.attributes
                0x000004d0       0x10 lib_generic/libgeneric.a(lmb.o)
 .ARM.attributes
                0x000004e0       0x10 lib_generic/libgeneric.a(string.o)
 .ARM.attributes
                0x000004f0       0x10 lib_generic/libgeneric.a(vsprintf.o)
 .ARM.attributes
                0x00000500       0x10 lib_generic/libgeneric.a(zlib.o)
 .ARM.attributes
                0x00000510       0x10 cpu/s5p645x/libs5p645x.a(usb_ohci.o)
 .ARM.attributes
                0x00000520       0x10 cpu/s5p645x/libs5p645x.a(nand.o)
 .ARM.attributes
                0x00000530       0x10 cpu/s5p645x/libs5p645x.a(usbd-otg-hs.o)
 .ARM.attributes
                0x00000540       0x10 cpu/s5p645x/libs5p645x.a(fastboot.o)
 .ARM.attributes
                0x00000550       0x10 lib_arm/libarm.a(_ashldi3.o)
 .ARM.attributes
                0x00000560       0x10 lib_arm/libarm.a(_ashrdi3.o)
 .ARM.attributes
                0x00000570       0x10 lib_arm/libarm.a(_umodsi3.o)
 .ARM.attributes
                0x00000580       0x10 lib_arm/libarm.a(bootm.o)
 .ARM.attributes
                0x00000590       0x10 lib_arm/libarm.a(cache.o)
 .ARM.attributes
                0x000005a0       0x10 fs/fat/libfat.a(fat.o)
 .ARM.attributes
                0x000005b0       0x10 fs/ext2/libext2fs.a(ext2fs.o)
 .ARM.attributes
                0x000005c0       0x10 fs/ext2/libext2fs.a(dev.o)
 .ARM.attributes
                0x000005d0       0x10 disk/libdisk.a(part.o)
 .ARM.attributes
                0x000005e0       0x10 disk/libdisk.a(part_dos.o)
 .ARM.attributes
                0x000005f0       0x10 drivers/mtd/nand/libnand.a(nand_util.o)
 .ARM.attributes
                0x00000600       0x10 drivers/rtc/librtc.a(date.o)
 .ARM.attributes
                0x00000610       0x10 drivers/rtc/librtc.a(s5p64xx_rtc.o)
 .ARM.attributes
                0x00000620       0x10 lib_generic/libgeneric.a(div64.o)

.debug_line     0x00000000     0xc88c
 .debug_line    0x00000000       0xd4 cpu/s5p645x/start.o
 .debug_line    0x000000d4       0x61 cpu/s5p645x/start_irom.o
 .debug_line    0x00000135       0x6a cpu/s5p645x/s5p6450/cpu_init.o
 .debug_line    0x0000019f       0xdf board/samsung/smdk6450/lowlevel_init.o
 .debug_line    0x0000027e      0x115 cpu/s5p645x/nand_cp.o
 .debug_line    0x00000393      0x107 cpu/s5p645x/movi.o
 .debug_line    0x0000049a      0x1e7 cpu/s5p645x/libs5p645x.a(interrupts.o)
 .debug_line    0x00000681      0x1b3 cpu/s5p645x/libs5p645x.a(cpu.o)
 .debug_line    0x00000834      0x15b cpu/s5p645x/libs5p645x.a(setup_hsmmc.o)
 .debug_line    0x0000098f      0x131 cpu/s5p645x/libs5p645x.a(serial.o)
 .debug_line    0x00000ac0       0xaf cpu/s5p645x/s5p6450/libs5p6450.a(speed.o)
 .debug_line    0x00000b6f       0x5f lib_arm/libarm.a(_udivsi3.o)
 .debug_line    0x00000bce      0x1cd lib_arm/libarm.a(board.o)
 .debug_line    0x00000d9b       0x66 lib_arm/libarm.a(_divsi3.o)
 .debug_line    0x00000e01       0x53 lib_arm/libarm.a(_modsi3.o)
 .debug_line    0x00000e54      0x4ac net/libnet.a(net.o)
 .debug_line    0x00001300      0x243 net/libnet.a(tftp.o)
 .debug_line    0x00001543      0x314 net/libnet.a(bootp.o)
 .debug_line    0x00001857       0xee net/libnet.a(rarp.o)
 .debug_line    0x00001945       0xb2 net/libnet.a(eth.o)
 .debug_line    0x000019f7      0x327 net/libnet.a(nfs.o)
 .debug_line    0x00001d1e      0x51c drivers/mmc/libmmc.a(mmc.o)
 .debug_line    0x0000223a      0x26d drivers/mmc/libmmc.a(s3c_hsmmc.o)
 .debug_line    0x000024a7      0x163 drivers/mtd/nand/libnand.a(nand.o)
 .debug_line    0x0000260a      0x851 drivers/mtd/nand/libnand.a(nand_base.o)
 .debug_line    0x00002e5b       0x68 drivers/mtd/nand/libnand.a(nand_ids.o)
 .debug_line    0x00002ec3      0x1b9 drivers/mtd/nand/libnand.a(nand_ecc.o)
 .debug_line    0x0000307c      0x465 drivers/mtd/nand/libnand.a(nand_bbt.o)
 .debug_line    0x000034e1      0x44a drivers/net/libnet.a(dm9000x.o)
 .debug_line    0x0000392b      0x2db common/libcommon.a(main.o)
 .debug_line    0x00003c06      0x18a common/libcommon.a(cmd_autoscript.o)
 .debug_line    0x00003d90      0x111 common/libcommon.a(cmd_bdinfo.o)
 .debug_line    0x00003ea1      0x332 common/libcommon.a(image.o)
 .debug_line    0x000041d3       0xb9 common/libcommon.a(cmd_boot.o)
 .debug_line    0x0000428c      0x379 common/libcommon.a(cmd_bootm.o)
 .debug_line    0x00004605       0x91 common/libcommon.a(cmd_cache.o)
 .debug_line    0x00004696       0xa6 common/libcommon.a(cmd_console.o)
 .debug_line    0x0000473c      0x151 common/libcommon.a(cmd_date.o)
 .debug_line    0x0000488d      0x192 common/libcommon.a(cmd_elf.o)
 .debug_line    0x00004a1f      0x173 common/libcommon.a(cmd_ext2.o)
 .debug_line    0x00004b92      0x147 common/libcommon.a(cmd_fat.o)
 .debug_line    0x00004cd9      0x180 common/libcommon.a(cmd_flash.o)
 .debug_line    0x00004e59       0xfb common/libcommon.a(cmd_itest.o)
 .debug_line    0x00004f54      0x447 common/libcommon.a(cmd_load.o)
 .debug_line    0x0000539b      0x240 common/libcommon.a(cmd_mem.o)
 .debug_line    0x000055db       0xb9 common/libcommon.a(cmd_misc.o)
 .debug_line    0x00005694      0x17f common/libcommon.a(cmd_mmc.o)
 .debug_line    0x00005813      0x36a common/libcommon.a(cmd_nand.o)
 .debug_line    0x00005b7d      0x135 common/libcommon.a(cmd_net.o)
 .debug_line    0x00005cb2      0x289 common/libcommon.a(cmd_nvedit.o)
 .debug_line    0x00005f3b       0x7f common/libcommon.a(cmd_reginfo.o)
 .debug_line    0x00005fba       0xae common/libcommon.a(cmd_usbd.o)
 .debug_line    0x00006068      0x180 common/libcommon.a(cmd_ximg.o)
 .debug_line    0x000061e8      0x145 common/libcommon.a(command.o)
 .debug_line    0x0000632d      0x295 common/libcommon.a(console.o)
 .debug_line    0x000065c2      0x132 common/libcommon.a(devices.o)
 .debug_line    0x000066f4      0x368 common/libcommon.a(dlmalloc.o)
 .debug_line    0x00006a5c      0x153 common/libcommon.a(env_common.o)
 .debug_line    0x00006baf      0x109 common/libcommon.a(exports.o)
 .debug_line    0x00006cb8      0x140 common/libcommon.a(flash.o)
 .debug_line    0x00006df8      0x5c3 common/libcommon.a(hush.o)
 .debug_line    0x000073bb      0x113 common/libcommon.a(lists.o)
 .debug_line    0x000074ce       0xd0 common/libcommon.a(s_record.o)
 .debug_line    0x0000759e      0x405 common/libcommon.a(usb.o)
 .debug_line    0x000079a3      0x211 common/libcommon.a(xyzModem.o)
 .debug_line    0x00007bb4      0x1d9 common/libcommon.a(cmd_movi.o)
 .debug_line    0x00007d8d      0x19b common/libcommon.a(cmd_lcd.o)
 .debug_line    0x00007f28      0x45f common/libcommon.a(cmd_fastboot.o)
 .debug_line    0x00008387      0x276 common/libcommon.a(cmd_mmc_fdisk.o)
 .debug_line    0x000085fd      0x290 common/libcommon.a(env_auto.o)
 .debug_line    0x0000888d       0xb6 common/libcommon.a(gunzip.o)
 .debug_line    0x00008943       0xb4 common/libcommon.a(crc16.o)
 .debug_line    0x000089f7       0xf2 board/samsung/smdk6450/libsmdk6450.a(smdk6450.o)
 .debug_line    0x00008ae9      0x1a8 board/samsung/smdk6450/libsmdk6450.a(flash.o)
 .debug_line    0x00008c91      0x10c lib_generic/libgeneric.a(crc32.o)
 .debug_line    0x00008d9d       0x28 lib_generic/libgeneric.a(ctype.o)
 .debug_line    0x00008dc5      0x115 lib_generic/libgeneric.a(display_options.o)
 .debug_line    0x00008eda      0x1f9 lib_generic/libgeneric.a(lmb.o)
 .debug_line    0x000090d3      0x18f lib_generic/libgeneric.a(string.o)
 .debug_line    0x00009262      0x1e2 lib_generic/libgeneric.a(vsprintf.o)
 .debug_line    0x00009444      0x67d lib_generic/libgeneric.a(zlib.o)
 .debug_line    0x00009ac1      0x1e2 cpu/s5p645x/libs5p645x.a(usb_ohci.o)
 .debug_line    0x00009ca3      0x2f0 cpu/s5p645x/libs5p645x.a(nand.o)
 .debug_line    0x00009f93      0x67a cpu/s5p645x/libs5p645x.a(usbd-otg-hs.o)
 .debug_line    0x0000a60d      0x759 cpu/s5p645x/libs5p645x.a(fastboot.o)
 .debug_line    0x0000ad66       0x40 lib_arm/libarm.a(_ashldi3.o)
 .debug_line    0x0000ada6       0x40 lib_arm/libarm.a(_ashrdi3.o)
 .debug_line    0x0000ade6       0x66 lib_arm/libarm.a(_umodsi3.o)
 .debug_line    0x0000ae4c      0x20d lib_arm/libarm.a(bootm.o)
 .debug_line    0x0000b059       0x38 lib_arm/libarm.a(cache.o)
 .debug_line    0x0000b091      0x4ab fs/fat/libfat.a(fat.o)
 .debug_line    0x0000b53c      0x968 fs/ext2/libext2fs.a(ext2fs.o)
 .debug_line    0x0000bea4      0x12f fs/ext2/libext2fs.a(dev.o)
 .debug_line    0x0000bfd3      0x17b disk/libdisk.a(part.o)
 .debug_line    0x0000c14e      0x14c disk/libdisk.a(part_dos.o)
 .debug_line    0x0000c29a      0x377 drivers/mtd/nand/libnand.a(nand_util.o)
 .debug_line    0x0000c611       0xb6 drivers/rtc/librtc.a(date.o)
 .debug_line    0x0000c6c7       0xfb drivers/rtc/librtc.a(s5p64xx_rtc.o)
 .debug_line    0x0000c7c2       0xca lib_generic/libgeneric.a(div64.o)

.debug_info     0x00000000    0x35989
 .debug_info    0x00000000       0x62 cpu/s5p645x/start.o
 .debug_info    0x00000062       0x67 cpu/s5p645x/start_irom.o
 .debug_info    0x000000c9       0x6d cpu/s5p645x/s5p6450/cpu_init.o
 .debug_info    0x00000136       0x75 board/samsung/smdk6450/lowlevel_init.o
 .debug_info    0x000001ab      0x27b cpu/s5p645x/nand_cp.o
 .debug_info    0x00000426      0x2ac cpu/s5p645x/movi.o
 .debug_info    0x000006d2      0x5f7 cpu/s5p645x/libs5p645x.a(interrupts.o)
 .debug_info    0x00000cc9      0x71b cpu/s5p645x/libs5p645x.a(cpu.o)
 .debug_info    0x000013e4      0x6fe cpu/s5p645x/libs5p645x.a(setup_hsmmc.o)
 .debug_info    0x00001ae2      0x443 cpu/s5p645x/libs5p645x.a(serial.o)
 .debug_info    0x00001f25      0x1d1 cpu/s5p645x/s5p6450/libs5p6450.a(speed.o)
 .debug_info    0x000020f6       0x61 lib_arm/libarm.a(_udivsi3.o)
 .debug_info    0x00002157      0x608 lib_arm/libarm.a(board.o)
 .debug_info    0x0000275f       0x60 lib_arm/libarm.a(_divsi3.o)
 .debug_info    0x000027bf       0x60 lib_arm/libarm.a(_modsi3.o)
 .debug_info    0x0000281f     0x138a net/libnet.a(net.o)
 .debug_info    0x00003ba9      0x450 net/libnet.a(tftp.o)
 .debug_info    0x00003ff9      0x9be net/libnet.a(bootp.o)
 .debug_info    0x000049b7      0x251 net/libnet.a(rarp.o)
 .debug_info    0x00004c08      0x17b net/libnet.a(eth.o)
 .debug_info    0x00004d83      0xc82 net/libnet.a(nfs.o)
 .debug_info    0x00005a05     0x1e1b drivers/mmc/libmmc.a(mmc.o)
 .debug_info    0x00007820      0xb68 drivers/mmc/libmmc.a(s3c_hsmmc.o)
 .debug_info    0x00008388     0x107a drivers/mtd/nand/libnand.a(nand.o)
 .debug_info    0x00009402     0x2f4f drivers/mtd/nand/libnand.a(nand_base.o)
 .debug_info    0x0000c351      0x152 drivers/mtd/nand/libnand.a(nand_ids.o)
 .debug_info    0x0000c4a3      0x9a9 drivers/mtd/nand/libnand.a(nand_ecc.o)
 .debug_info    0x0000ce4c     0x1f63 drivers/mtd/nand/libnand.a(nand_bbt.o)
 .debug_info    0x0000edaf     0x115a drivers/net/libnet.a(dm9000x.o)
 .debug_info    0x0000ff09      0xbc3 common/libcommon.a(main.o)
 .debug_info    0x00010acc      0x464 common/libcommon.a(cmd_autoscript.o)
 .debug_info    0x00010f30      0x37f common/libcommon.a(cmd_bdinfo.o)
 .debug_info    0x000112af     0x11c3 common/libcommon.a(image.o)
 .debug_info    0x00012472      0x24c common/libcommon.a(cmd_boot.o)
 .debug_info    0x000126be     0x13aa common/libcommon.a(cmd_bootm.o)
 .debug_info    0x00013a68      0x22c common/libcommon.a(cmd_cache.o)
 .debug_info    0x00013c94      0x37d common/libcommon.a(cmd_console.o)
 .debug_info    0x00014011      0x51d common/libcommon.a(cmd_date.o)
 .debug_info    0x0001452e      0x5f6 common/libcommon.a(cmd_elf.o)
 .debug_info    0x00014b24      0x695 common/libcommon.a(cmd_ext2.o)
 .debug_info    0x000151b9      0x5b6 common/libcommon.a(cmd_fat.o)
 .debug_info    0x0001576f      0x795 common/libcommon.a(cmd_flash.o)
 .debug_info    0x00015f04      0x442 common/libcommon.a(cmd_itest.o)
 .debug_info    0x00016346      0xe22 common/libcommon.a(cmd_load.o)
 .debug_info    0x00017168      0xa37 common/libcommon.a(cmd_mem.o)
 .debug_info    0x00017b9f      0x1b0 common/libcommon.a(cmd_misc.o)
 .debug_info    0x00017d4f      0x894 common/libcommon.a(cmd_mmc.o)
 .debug_info    0x000185e3     0x1990 common/libcommon.a(cmd_nand.o)
 .debug_info    0x00019f73      0x5ca common/libcommon.a(cmd_net.o)
 .debug_info    0x0001a53d      0x86b common/libcommon.a(cmd_nvedit.o)
 .debug_info    0x0001ada8      0x184 common/libcommon.a(cmd_reginfo.o)
 .debug_info    0x0001af2c      0x1e7 common/libcommon.a(cmd_usbd.o)
 .debug_info    0x0001b113      0x423 common/libcommon.a(cmd_ximg.o)
 .debug_info    0x0001b536      0x549 common/libcommon.a(command.o)
 .debug_info    0x0001ba7f      0x926 common/libcommon.a(console.o)
 .debug_info    0x0001c3a5      0x488 common/libcommon.a(devices.o)
 .debug_info    0x0001c82d      0xbd5 common/libcommon.a(dlmalloc.o)
 .debug_info    0x0001d402      0x3f3 common/libcommon.a(env_common.o)
 .debug_info    0x0001d7f5      0x2d3 common/libcommon.a(exports.o)
 .debug_info    0x0001dac8      0x314 common/libcommon.a(flash.o)
 .debug_info    0x0001dddc     0x1746 common/libcommon.a(hush.o)
 .debug_info    0x0001f522      0x51c common/libcommon.a(lists.o)
 .debug_info    0x0001fa3e      0x18d common/libcommon.a(s_record.o)
 .debug_info    0x0001fbcb     0x168c common/libcommon.a(usb.o)
 .debug_info    0x00021257      0x678 common/libcommon.a(xyzModem.o)
 .debug_info    0x000218cf      0x8cf common/libcommon.a(cmd_movi.o)
 .debug_info    0x0002219e      0x1e4 common/libcommon.a(cmd_lcd.o)
 .debug_info    0x00022382     0x12c4 common/libcommon.a(cmd_fastboot.o)
 .debug_info    0x00023646      0xd3c common/libcommon.a(cmd_mmc_fdisk.o)
 .debug_info    0x00024382      0xf18 common/libcommon.a(env_auto.o)
 .debug_info    0x0002529a      0x34e common/libcommon.a(gunzip.o)
 .debug_info    0x000255e8      0x10a common/libcommon.a(crc16.o)
 .debug_info    0x000256f2      0x2ba board/samsung/smdk6450/libsmdk6450.a(smdk6450.o)
 .debug_info    0x000259ac      0x404 board/samsung/smdk6450/libsmdk6450.a(flash.o)
 .debug_info    0x00025db0      0x1d7 lib_generic/libgeneric.a(crc32.o)
 .debug_info    0x00025f87       0x52 lib_generic/libgeneric.a(ctype.o)
 .debug_info    0x00025fd9      0x257 lib_generic/libgeneric.a(display_options.o)
 .debug_info    0x00026230      0x804 lib_generic/libgeneric.a(lmb.o)
 .debug_info    0x00026a34      0x864 lib_generic/libgeneric.a(string.o)
 .debug_info    0x00027298      0x431 lib_generic/libgeneric.a(vsprintf.o)
 .debug_info    0x000276c9     0x1754 lib_generic/libgeneric.a(zlib.o)
 .debug_info    0x00028e1d     0x1298 cpu/s5p645x/libs5p645x.a(usb_ohci.o)
 .debug_info    0x0002a0b5     0x1746 cpu/s5p645x/libs5p645x.a(nand.o)
 .debug_info    0x0002b7fb     0x14e0 cpu/s5p645x/libs5p645x.a(usbd-otg-hs.o)
 .debug_info    0x0002ccdb     0x1980 cpu/s5p645x/libs5p645x.a(fastboot.o)
 .debug_info    0x0002e65b       0x61 lib_arm/libarm.a(_ashldi3.o)
 .debug_info    0x0002e6bc       0x61 lib_arm/libarm.a(_ashrdi3.o)
 .debug_info    0x0002e71d       0x61 lib_arm/libarm.a(_umodsi3.o)
 .debug_info    0x0002e77e      0xbe4 lib_arm/libarm.a(bootm.o)
 .debug_info    0x0002f362       0xa4 lib_arm/libarm.a(cache.o)
 .debug_info    0x0002f406     0x179b fs/fat/libfat.a(fat.o)
 .debug_info    0x00030ba1     0x1ba7 fs/ext2/libext2fs.a(ext2fs.o)
 .debug_info    0x00032748      0x3b9 fs/ext2/libext2fs.a(dev.o)
 .debug_info    0x00032b01      0x650 disk/libdisk.a(part.o)
 .debug_info    0x00033151      0x64b disk/libdisk.a(part_dos.o)
 .debug_info    0x0003379c     0x185d drivers/mtd/nand/libnand.a(nand_util.o)
 .debug_info    0x00034ff9      0x26c drivers/rtc/librtc.a(date.o)
 .debug_info    0x00035265      0x5f2 drivers/rtc/librtc.a(s5p64xx_rtc.o)
 .debug_info    0x00035857      0x132 lib_generic/libgeneric.a(div64.o)

.debug_abbrev   0x00000000     0xb8bb
 .debug_abbrev  0x00000000       0x14 cpu/s5p645x/start.o
 .debug_abbrev  0x00000014       0x14 cpu/s5p645x/start_irom.o
 .debug_abbrev  0x00000028       0x14 cpu/s5p645x/s5p6450/cpu_init.o
 .debug_abbrev  0x0000003c       0x14 board/samsung/smdk6450/lowlevel_init.o
 .debug_abbrev  0x00000050      0x12f cpu/s5p645x/nand_cp.o
 .debug_abbrev  0x0000017f      0x142 cpu/s5p645x/movi.o
 .debug_abbrev  0x000002c1      0x2ce cpu/s5p645x/libs5p645x.a(interrupts.o)
 .debug_abbrev  0x0000058f      0x209 cpu/s5p645x/libs5p645x.a(cpu.o)
 .debug_abbrev  0x00000798      0x1c8 cpu/s5p645x/libs5p645x.a(setup_hsmmc.o)
 .debug_abbrev  0x00000960      0x199 cpu/s5p645x/libs5p645x.a(serial.o)
 .debug_abbrev  0x00000af9       0xe5 cpu/s5p645x/s5p6450/libs5p6450.a(speed.o)
 .debug_abbrev  0x00000bde       0x14 lib_arm/libarm.a(_udivsi3.o)
 .debug_abbrev  0x00000bf2      0x299 lib_arm/libarm.a(board.o)
 .debug_abbrev  0x00000e8b       0x14 lib_arm/libarm.a(_divsi3.o)
 .debug_abbrev  0x00000e9f       0x14 lib_arm/libarm.a(_modsi3.o)
 .debug_abbrev  0x00000eb3      0x419 net/libnet.a(net.o)
 .debug_abbrev  0x000012cc      0x1d4 net/libnet.a(tftp.o)
 .debug_abbrev  0x000014a0      0x31f net/libnet.a(bootp.o)
 .debug_abbrev  0x000017bf      0x11e net/libnet.a(rarp.o)
 .debug_abbrev  0x000018dd       0xb5 net/libnet.a(eth.o)
 .debug_abbrev  0x00001992      0x345 net/libnet.a(nfs.o)
 .debug_abbrev  0x00001cd7      0x41a drivers/mmc/libmmc.a(mmc.o)
 .debug_abbrev  0x000020f1      0x323 drivers/mmc/libmmc.a(s3c_hsmmc.o)
 .debug_abbrev  0x00002414      0x1c1 drivers/mtd/nand/libnand.a(nand.o)
 .debug_abbrev  0x000025d5      0x407 drivers/mtd/nand/libnand.a(nand_base.o)
 .debug_abbrev  0x000029dc       0x8c drivers/mtd/nand/libnand.a(nand_ids.o)
 .debug_abbrev  0x00002a68      0x1c1 drivers/mtd/nand/libnand.a(nand_ecc.o)
 .debug_abbrev  0x00002c29      0x372 drivers/mtd/nand/libnand.a(nand_bbt.o)
 .debug_abbrev  0x00002f9b      0x30c drivers/net/libnet.a(dm9000x.o)
 .debug_abbrev  0x000032a7      0x324 common/libcommon.a(main.o)
 .debug_abbrev  0x000035cb      0x19e common/libcommon.a(cmd_autoscript.o)
 .debug_abbrev  0x00003769      0x142 common/libcommon.a(cmd_bdinfo.o)
 .debug_abbrev  0x000038ab      0x3c6 common/libcommon.a(image.o)
 .debug_abbrev  0x00003c71       0xdf common/libcommon.a(cmd_boot.o)
 .debug_abbrev  0x00003d50      0x412 common/libcommon.a(cmd_bootm.o)
 .debug_abbrev  0x00004162       0xee common/libcommon.a(cmd_cache.o)
 .debug_abbrev  0x00004250      0x148 common/libcommon.a(cmd_console.o)
 .debug_abbrev  0x00004398      0x19f common/libcommon.a(cmd_date.o)
 .debug_abbrev  0x00004537      0x1cd common/libcommon.a(cmd_elf.o)
 .debug_abbrev  0x00004704      0x1bd common/libcommon.a(cmd_ext2.o)
 .debug_abbrev  0x000048c1      0x13e common/libcommon.a(cmd_fat.o)
 .debug_abbrev  0x000049ff      0x212 common/libcommon.a(cmd_flash.o)
 .debug_abbrev  0x00004c11      0x1a0 common/libcommon.a(cmd_itest.o)
 .debug_abbrev  0x00004db1      0x3d8 common/libcommon.a(cmd_load.o)
 .debug_abbrev  0x00005189      0x1e2 common/libcommon.a(cmd_mem.o)
 .debug_abbrev  0x0000536b       0xd0 common/libcommon.a(cmd_misc.o)
 .debug_abbrev  0x0000543b      0x249 common/libcommon.a(cmd_mmc.o)
 .debug_abbrev  0x00005684      0x35f common/libcommon.a(cmd_nand.o)
 .debug_abbrev  0x000059e3      0x1c1 common/libcommon.a(cmd_net.o)
 .debug_abbrev  0x00005ba4      0x254 common/libcommon.a(cmd_nvedit.o)
 .debug_abbrev  0x00005df8       0xd0 common/libcommon.a(cmd_reginfo.o)
 .debug_abbrev  0x00005ec8      0x10b common/libcommon.a(cmd_usbd.o)
 .debug_abbrev  0x00005fd3      0x195 common/libcommon.a(cmd_ximg.o)
 .debug_abbrev  0x00006168      0x1c5 common/libcommon.a(command.o)
 .debug_abbrev  0x0000632d      0x2da common/libcommon.a(console.o)
 .debug_abbrev  0x00006607      0x16c common/libcommon.a(devices.o)
 .debug_abbrev  0x00006773      0x26e common/libcommon.a(dlmalloc.o)
 .debug_abbrev  0x000069e1      0x1e2 common/libcommon.a(env_common.o)
 .debug_abbrev  0x00006bc3      0x121 common/libcommon.a(exports.o)
 .debug_abbrev  0x00006ce4      0x173 common/libcommon.a(flash.o)
 .debug_abbrev  0x00006e57      0x379 common/libcommon.a(hush.o)
 .debug_abbrev  0x000071d0      0x202 common/libcommon.a(lists.o)
 .debug_abbrev  0x000073d2       0xea common/libcommon.a(s_record.o)
 .debug_abbrev  0x000074bc      0x38d common/libcommon.a(usb.o)
 .debug_abbrev  0x00007849      0x26d common/libcommon.a(xyzModem.o)
 .debug_abbrev  0x00007ab6      0x1d4 common/libcommon.a(cmd_movi.o)
 .debug_abbrev  0x00007c8a       0xea common/libcommon.a(cmd_lcd.o)
 .debug_abbrev  0x00007d74      0x352 common/libcommon.a(cmd_fastboot.o)
 .debug_abbrev  0x000080c6      0x2a7 common/libcommon.a(cmd_mmc_fdisk.o)
 .debug_abbrev  0x0000836d      0x2c9 common/libcommon.a(env_auto.o)
 .debug_abbrev  0x00008636      0x144 common/libcommon.a(gunzip.o)
 .debug_abbrev  0x0000877a       0xb7 common/libcommon.a(crc16.o)
 .debug_abbrev  0x00008831      0x146 board/samsung/smdk6450/libsmdk6450.a(smdk6450.o)
 .debug_abbrev  0x00008977      0x1e5 board/samsung/smdk6450/libsmdk6450.a(flash.o)
 .debug_abbrev  0x00008b5c       0xc1 lib_generic/libgeneric.a(crc32.o)
 .debug_abbrev  0x00008c1d       0x4b lib_generic/libgeneric.a(ctype.o)
 .debug_abbrev  0x00008c68      0x10f lib_generic/libgeneric.a(display_options.o)
 .debug_abbrev  0x00008d77      0x330 lib_generic/libgeneric.a(lmb.o)
 .debug_abbrev  0x000090a7      0x1e5 lib_generic/libgeneric.a(string.o)
 .debug_abbrev  0x0000928c      0x1c2 lib_generic/libgeneric.a(vsprintf.o)
 .debug_abbrev  0x0000944e      0x307 lib_generic/libgeneric.a(zlib.o)
 .debug_abbrev  0x00009755      0x372 cpu/s5p645x/libs5p645x.a(usb_ohci.o)
 .debug_abbrev  0x00009ac7      0x31d cpu/s5p645x/libs5p645x.a(nand.o)
 .debug_abbrev  0x00009de4      0x2ed cpu/s5p645x/libs5p645x.a(usbd-otg-hs.o)
 .debug_abbrev  0x0000a0d1      0x352 cpu/s5p645x/libs5p645x.a(fastboot.o)
 .debug_abbrev  0x0000a423       0x14 lib_arm/libarm.a(_ashldi3.o)
 .debug_abbrev  0x0000a437       0x14 lib_arm/libarm.a(_ashrdi3.o)
 .debug_abbrev  0x0000a44b       0x14 lib_arm/libarm.a(_umodsi3.o)
 .debug_abbrev  0x0000a45f      0x2a0 lib_arm/libarm.a(bootm.o)
 .debug_abbrev  0x0000a6ff       0x57 lib_arm/libarm.a(cache.o)
 .debug_abbrev  0x0000a756      0x37b fs/fat/libfat.a(fat.o)
 .debug_abbrev  0x0000aad1      0x336 fs/ext2/libext2fs.a(ext2fs.o)
 .debug_abbrev  0x0000ae07      0x132 fs/ext2/libext2fs.a(dev.o)
 .debug_abbrev  0x0000af39      0x1dc disk/libdisk.a(part.o)
 .debug_abbrev  0x0000b115      0x1e5 disk/libdisk.a(part_dos.o)
 .debug_abbrev  0x0000b2fa      0x284 drivers/mtd/nand/libnand.a(nand_util.o)
 .debug_abbrev  0x0000b57e      0x103 drivers/rtc/librtc.a(date.o)
 .debug_abbrev  0x0000b681      0x18d drivers/rtc/librtc.a(s5p64xx_rtc.o)
 .debug_abbrev  0x0000b80e       0xad lib_generic/libgeneric.a(div64.o)

.debug_aranges  0x00000000      0xc20
 .debug_aranges
                0x00000000       0x20 cpu/s5p645x/start.o
 .debug_aranges
                0x00000020       0x20 cpu/s5p645x/start_irom.o
 .debug_aranges
                0x00000040       0x20 cpu/s5p645x/s5p6450/cpu_init.o
 .debug_aranges
                0x00000060       0x20 board/samsung/smdk6450/lowlevel_init.o
 .debug_aranges
                0x00000080       0x20 cpu/s5p645x/nand_cp.o
 .debug_aranges
                0x000000a0       0x20 cpu/s5p645x/movi.o
 .debug_aranges
                0x000000c0       0x20 cpu/s5p645x/libs5p645x.a(interrupts.o)
 .debug_aranges
                0x000000e0       0x20 cpu/s5p645x/libs5p645x.a(cpu.o)
 .debug_aranges
                0x00000100       0x20 cpu/s5p645x/libs5p645x.a(setup_hsmmc.o)
 .debug_aranges
                0x00000120       0x20 cpu/s5p645x/libs5p645x.a(serial.o)
 .debug_aranges
                0x00000140       0x20 cpu/s5p645x/s5p6450/libs5p6450.a(speed.o)
 .debug_aranges
                0x00000160       0x20 lib_arm/libarm.a(_udivsi3.o)
 .debug_aranges
                0x00000180       0x20 lib_arm/libarm.a(board.o)
 .debug_aranges
                0x000001a0       0x20 lib_arm/libarm.a(_divsi3.o)
 .debug_aranges
                0x000001c0       0x20 lib_arm/libarm.a(_modsi3.o)
 .debug_aranges
                0x000001e0       0x20 net/libnet.a(net.o)
 .debug_aranges
                0x00000200       0x20 net/libnet.a(tftp.o)
 .debug_aranges
                0x00000220       0x20 net/libnet.a(bootp.o)
 .debug_aranges
                0x00000240       0x20 net/libnet.a(rarp.o)
 .debug_aranges
                0x00000260       0x20 net/libnet.a(eth.o)
 .debug_aranges
                0x00000280       0x20 net/libnet.a(nfs.o)
 .debug_aranges
                0x000002a0       0x20 drivers/mmc/libmmc.a(mmc.o)
 .debug_aranges
                0x000002c0       0x20 drivers/mmc/libmmc.a(s3c_hsmmc.o)
 .debug_aranges
                0x000002e0       0x20 drivers/mtd/nand/libnand.a(nand.o)
 .debug_aranges
                0x00000300       0x20 drivers/mtd/nand/libnand.a(nand_base.o)
 .debug_aranges
                0x00000320       0x20 drivers/mtd/nand/libnand.a(nand_ecc.o)
 .debug_aranges
                0x00000340       0x20 drivers/mtd/nand/libnand.a(nand_bbt.o)
 .debug_aranges
                0x00000360       0x20 drivers/net/libnet.a(dm9000x.o)
 .debug_aranges
                0x00000380       0x20 common/libcommon.a(main.o)
 .debug_aranges
                0x000003a0       0x20 common/libcommon.a(cmd_autoscript.o)
 .debug_aranges
                0x000003c0       0x20 common/libcommon.a(cmd_bdinfo.o)
 .debug_aranges
                0x000003e0       0x20 common/libcommon.a(image.o)
 .debug_aranges
                0x00000400       0x20 common/libcommon.a(cmd_boot.o)
 .debug_aranges
                0x00000420       0x20 common/libcommon.a(cmd_bootm.o)
 .debug_aranges
                0x00000440       0x20 common/libcommon.a(cmd_cache.o)
 .debug_aranges
                0x00000460       0x20 common/libcommon.a(cmd_console.o)
 .debug_aranges
                0x00000480       0x20 common/libcommon.a(cmd_date.o)
 .debug_aranges
                0x000004a0       0x20 common/libcommon.a(cmd_elf.o)
 .debug_aranges
                0x000004c0       0x20 common/libcommon.a(cmd_ext2.o)
 .debug_aranges
                0x000004e0       0x20 common/libcommon.a(cmd_fat.o)
 .debug_aranges
                0x00000500       0x20 common/libcommon.a(cmd_flash.o)
 .debug_aranges
                0x00000520       0x20 common/libcommon.a(cmd_itest.o)
 .debug_aranges
                0x00000540       0x20 common/libcommon.a(cmd_load.o)
 .debug_aranges
                0x00000560       0x20 common/libcommon.a(cmd_mem.o)
 .debug_aranges
                0x00000580       0x20 common/libcommon.a(cmd_misc.o)
 .debug_aranges
                0x000005a0       0x20 common/libcommon.a(cmd_mmc.o)
 .debug_aranges
                0x000005c0       0x20 common/libcommon.a(cmd_nand.o)
 .debug_aranges
                0x000005e0       0x20 common/libcommon.a(cmd_net.o)
 .debug_aranges
                0x00000600       0x20 common/libcommon.a(cmd_nvedit.o)
 .debug_aranges
                0x00000620       0x20 common/libcommon.a(cmd_reginfo.o)
 .debug_aranges
                0x00000640       0x20 common/libcommon.a(cmd_usbd.o)
 .debug_aranges
                0x00000660       0x20 common/libcommon.a(cmd_ximg.o)
 .debug_aranges
                0x00000680       0x20 common/libcommon.a(command.o)
 .debug_aranges
                0x000006a0       0x20 common/libcommon.a(console.o)
 .debug_aranges
                0x000006c0       0x20 common/libcommon.a(devices.o)
 .debug_aranges
                0x000006e0       0x20 common/libcommon.a(dlmalloc.o)
 .debug_aranges
                0x00000700       0x20 common/libcommon.a(env_common.o)
 .debug_aranges
                0x00000720       0x20 common/libcommon.a(exports.o)
 .debug_aranges
                0x00000740       0x20 common/libcommon.a(flash.o)
 .debug_aranges
                0x00000760       0x20 common/libcommon.a(hush.o)
 .debug_aranges
                0x00000780       0x20 common/libcommon.a(lists.o)
 .debug_aranges
                0x000007a0       0x20 common/libcommon.a(s_record.o)
 .debug_aranges
                0x000007c0       0x20 common/libcommon.a(usb.o)
 .debug_aranges
                0x000007e0       0x20 common/libcommon.a(xyzModem.o)
 .debug_aranges
                0x00000800       0x20 common/libcommon.a(cmd_movi.o)
 .debug_aranges
                0x00000820       0x20 common/libcommon.a(cmd_lcd.o)
 .debug_aranges
                0x00000840       0x20 common/libcommon.a(cmd_fastboot.o)
 .debug_aranges
                0x00000860       0x20 common/libcommon.a(cmd_mmc_fdisk.o)
 .debug_aranges
                0x00000880       0x20 common/libcommon.a(env_auto.o)
 .debug_aranges
                0x000008a0       0x20 common/libcommon.a(gunzip.o)
 .debug_aranges
                0x000008c0       0x20 common/libcommon.a(crc16.o)
 .debug_aranges
                0x000008e0       0x20 board/samsung/smdk6450/libsmdk6450.a(smdk6450.o)
 .debug_aranges
                0x00000900       0x20 board/samsung/smdk6450/libsmdk6450.a(flash.o)
 .debug_aranges
                0x00000920       0x20 lib_generic/libgeneric.a(crc32.o)
 .debug_aranges
                0x00000940       0x20 lib_generic/libgeneric.a(display_options.o)
 .debug_aranges
                0x00000960       0x20 lib_generic/libgeneric.a(lmb.o)
 .debug_aranges
                0x00000980       0x20 lib_generic/libgeneric.a(string.o)
 .debug_aranges
                0x000009a0       0x20 lib_generic/libgeneric.a(vsprintf.o)
 .debug_aranges
                0x000009c0       0x20 lib_generic/libgeneric.a(zlib.o)
 .debug_aranges
                0x000009e0       0x20 cpu/s5p645x/libs5p645x.a(usb_ohci.o)
 .debug_aranges
                0x00000a00       0x20 cpu/s5p645x/libs5p645x.a(nand.o)
 .debug_aranges
                0x00000a20       0x20 cpu/s5p645x/libs5p645x.a(usbd-otg-hs.o)
 .debug_aranges
                0x00000a40       0x20 cpu/s5p645x/libs5p645x.a(fastboot.o)
 .debug_aranges
                0x00000a60       0x20 lib_arm/libarm.a(_ashldi3.o)
 .debug_aranges
                0x00000a80       0x20 lib_arm/libarm.a(_ashrdi3.o)
 .debug_aranges
                0x00000aa0       0x20 lib_arm/libarm.a(_umodsi3.o)
 .debug_aranges
                0x00000ac0       0x20 lib_arm/libarm.a(bootm.o)
 .debug_aranges
                0x00000ae0       0x20 lib_arm/libarm.a(cache.o)
 .debug_aranges
                0x00000b00       0x20 fs/fat/libfat.a(fat.o)
 .debug_aranges
                0x00000b20       0x20 fs/ext2/libext2fs.a(ext2fs.o)
 .debug_aranges
                0x00000b40       0x20 fs/ext2/libext2fs.a(dev.o)
 .debug_aranges
                0x00000b60       0x20 disk/libdisk.a(part.o)
 .debug_aranges
                0x00000b80       0x20 disk/libdisk.a(part_dos.o)
 .debug_aranges
                0x00000ba0       0x20 drivers/mtd/nand/libnand.a(nand_util.o)
 .debug_aranges
                0x00000bc0       0x20 drivers/rtc/librtc.a(date.o)
 .debug_aranges
                0x00000be0       0x20 drivers/rtc/librtc.a(s5p64xx_rtc.o)
 .debug_aranges
                0x00000c00       0x20 lib_generic/libgeneric.a(div64.o)

.debug_frame    0x00000000     0x5dd8
 .debug_frame   0x00000000       0x7c cpu/s5p645x/nand_cp.o
 .debug_frame   0x0000007c       0x74 cpu/s5p645x/movi.o
 .debug_frame   0x000000f0      0x1d4 cpu/s5p645x/libs5p645x.a(interrupts.o)
 .debug_frame   0x000002c4      0x154 cpu/s5p645x/libs5p645x.a(cpu.o)
 .debug_frame   0x00000418       0x58 cpu/s5p645x/libs5p645x.a(setup_hsmmc.o)
 .debug_frame   0x00000470       0x78 cpu/s5p645x/libs5p645x.a(serial.o)
 .debug_frame   0x000004e8       0xc0 cpu/s5p645x/s5p6450/libs5p6450.a(speed.o)
 .debug_frame   0x000005a8      0x12c lib_arm/libarm.a(board.o)
 .debug_frame   0x000006d4      0x334 net/libnet.a(net.o)
 .debug_frame   0x00000a08       0xa0 net/libnet.a(tftp.o)
 .debug_frame   0x00000aa8      0x15c net/libnet.a(bootp.o)
 .debug_frame   0x00000c04       0x60 net/libnet.a(rarp.o)
 .debug_frame   0x00000c64       0x20 net/libnet.a(eth.o)
 .debug_frame   0x00000c84      0x15c net/libnet.a(nfs.o)
 .debug_frame   0x00000de0      0x2e4 drivers/mmc/libmmc.a(mmc.o)
 .debug_frame   0x000010c4       0xd0 drivers/mmc/libmmc.a(s3c_hsmmc.o)
 .debug_frame   0x00001194       0x28 drivers/mtd/nand/libnand.a(nand.o)
 .debug_frame   0x000011bc      0x644 drivers/mtd/nand/libnand.a(nand_base.o)
 .debug_frame   0x00001800       0x50 drivers/mtd/nand/libnand.a(nand_ecc.o)
 .debug_frame   0x00001850      0x1bc drivers/mtd/nand/libnand.a(nand_bbt.o)
 .debug_frame   0x00001a0c      0x1b4 drivers/net/libnet.a(dm9000x.o)
 .debug_frame   0x00001bc0      0x120 common/libcommon.a(main.o)
 .debug_frame   0x00001ce0       0x58 common/libcommon.a(cmd_autoscript.o)
 .debug_frame   0x00001d38       0x40 common/libcommon.a(cmd_bdinfo.o)
 .debug_frame   0x00001d78      0x264 common/libcommon.a(image.o)
 .debug_frame   0x00001fdc       0x44 common/libcommon.a(cmd_boot.o)
 .debug_frame   0x00002020      0x114 common/libcommon.a(cmd_bootm.o)
 .debug_frame   0x00002134       0x58 common/libcommon.a(cmd_cache.o)
 .debug_frame   0x0000218c       0x38 common/libcommon.a(cmd_console.o)
 .debug_frame   0x000021c4       0x5c common/libcommon.a(cmd_date.o)
 .debug_frame   0x00002220       0xa8 common/libcommon.a(cmd_elf.o)
 .debug_frame   0x000022c8       0x9c common/libcommon.a(cmd_ext2.o)
 .debug_frame   0x00002364       0x9c common/libcommon.a(cmd_fat.o)
 .debug_frame   0x00002400       0xe0 common/libcommon.a(cmd_flash.o)
 .debug_frame   0x000024e0       0x74 common/libcommon.a(cmd_itest.o)
 .debug_frame   0x00002554      0x1a0 common/libcommon.a(cmd_load.o)
 .debug_frame   0x000026f4      0x184 common/libcommon.a(cmd_mem.o)
 .debug_frame   0x00002878       0x30 common/libcommon.a(cmd_misc.o)
 .debug_frame   0x000028a8       0x58 common/libcommon.a(cmd_mmc.o)
 .debug_frame   0x00002900       0xc8 common/libcommon.a(cmd_nand.o)
 .debug_frame   0x000029c8       0xa0 common/libcommon.a(cmd_net.o)
 .debug_frame   0x00002a68      0x108 common/libcommon.a(cmd_nvedit.o)
 .debug_frame   0x00002b70       0x20 common/libcommon.a(cmd_reginfo.o)
 .debug_frame   0x00002b90       0x2c common/libcommon.a(cmd_usbd.o)
 .debug_frame   0x00002bbc       0x38 common/libcommon.a(cmd_ximg.o)
 .debug_frame   0x00002bf4       0xdc common/libcommon.a(command.o)
 .debug_frame   0x00002cd0      0x21c common/libcommon.a(console.o)
 .debug_frame   0x00002eec       0x5c common/libcommon.a(devices.o)
 .debug_frame   0x00002f48      0x134 common/libcommon.a(dlmalloc.o)
 .debug_frame   0x0000307c       0x90 common/libcommon.a(env_common.o)
 .debug_frame   0x0000310c       0x48 common/libcommon.a(exports.o)
 .debug_frame   0x00003154       0x7c common/libcommon.a(flash.o)
 .debug_frame   0x000031d0      0x324 common/libcommon.a(hush.o)
 .debug_frame   0x000034f4      0x138 common/libcommon.a(lists.o)
 .debug_frame   0x0000362c       0x64 common/libcommon.a(s_record.o)
 .debug_frame   0x00003690      0x440 common/libcommon.a(usb.o)
 .debug_frame   0x00003ad0      0x12c common/libcommon.a(xyzModem.o)
 .debug_frame   0x00003bfc       0x54 common/libcommon.a(cmd_movi.o)
 .debug_frame   0x00003c50       0x34 common/libcommon.a(cmd_lcd.o)
 .debug_frame   0x00003c84      0x19c common/libcommon.a(cmd_fastboot.o)
 .debug_frame   0x00003e20      0x1c0 common/libcommon.a(cmd_mmc_fdisk.o)
 .debug_frame   0x00003fe0      0x1ac common/libcommon.a(env_auto.o)
 .debug_frame   0x0000418c       0x58 common/libcommon.a(gunzip.o)
 .debug_frame   0x000041e4       0x28 common/libcommon.a(crc16.o)
 .debug_frame   0x0000420c       0x70 board/samsung/smdk6450/libsmdk6450.a(smdk6450.o)
 .debug_frame   0x0000427c       0xb8 board/samsung/smdk6450/libsmdk6450.a(flash.o)
 .debug_frame   0x00004334       0x58 lib_generic/libgeneric.a(crc32.o)
 .debug_frame   0x0000438c       0x70 lib_generic/libgeneric.a(display_options.o)
 .debug_frame   0x000043fc      0x13c lib_generic/libgeneric.a(lmb.o)
 .debug_frame   0x00004538      0x1dc lib_generic/libgeneric.a(string.o)
 .debug_frame   0x00004714       0xf4 lib_generic/libgeneric.a(vsprintf.o)
 .debug_frame   0x00004808      0x1f4 lib_generic/libgeneric.a(zlib.o)
 .debug_frame   0x000049fc       0xe8 cpu/s5p645x/libs5p645x.a(usb_ohci.o)
 .debug_frame   0x00004ae4      0x184 cpu/s5p645x/libs5p645x.a(nand.o)
 .debug_frame   0x00004c68      0x45c cpu/s5p645x/libs5p645x.a(usbd-otg-hs.o)
 .debug_frame   0x000050c4      0x4f4 cpu/s5p645x/libs5p645x.a(fastboot.o)
 .debug_frame   0x000055b8       0x58 lib_arm/libarm.a(bootm.o)
 .debug_frame   0x00005610       0x20 lib_arm/libarm.a(cache.o)
 .debug_frame   0x00005630      0x20c fs/fat/libfat.a(fat.o)
 .debug_frame   0x0000583c      0x1a4 fs/ext2/libext2fs.a(ext2fs.o)
 .debug_frame   0x000059e0       0x54 fs/ext2/libext2fs.a(dev.o)
 .debug_frame   0x00005a34       0x9c disk/libdisk.a(part.o)
 .debug_frame   0x00005ad0       0xcc disk/libdisk.a(part_dos.o)
 .debug_frame   0x00005b9c       0xf4 drivers/mtd/nand/libnand.a(nand_util.o)
 .debug_frame   0x00005c90       0x6c drivers/rtc/librtc.a(date.o)
 .debug_frame   0x00005cfc       0xa8 drivers/rtc/librtc.a(s5p64xx_rtc.o)
 .debug_frame   0x00005da4       0x34 lib_generic/libgeneric.a(div64.o)

.debug_loc      0x00000000    0x1d843
 .debug_loc     0x00000000      0x1ba cpu/s5p645x/nand_cp.o
 .debug_loc     0x000001ba       0xc1 cpu/s5p645x/movi.o
 .debug_loc     0x0000027b      0x37b cpu/s5p645x/libs5p645x.a(interrupts.o)
 .debug_loc     0x000005f6      0x285 cpu/s5p645x/libs5p645x.a(cpu.o)
 .debug_loc     0x0000087b       0xae cpu/s5p645x/libs5p645x.a(setup_hsmmc.o)
 .debug_loc     0x00000929       0x50 cpu/s5p645x/libs5p645x.a(serial.o)
 .debug_loc     0x00000979       0xcc cpu/s5p645x/s5p6450/libs5p6450.a(speed.o)
 .debug_loc     0x00000a45      0x153 lib_arm/libarm.a(board.o)
 .debug_loc     0x00000b98      0xb47 net/libnet.a(net.o)
 .debug_loc     0x000016df      0x249 net/libnet.a(tftp.o)
 .debug_loc     0x00001928      0x67f net/libnet.a(bootp.o)
 .debug_loc     0x00001fa7       0xe5 net/libnet.a(rarp.o)
 .debug_loc     0x0000208c       0x13 net/libnet.a(eth.o)
 .debug_loc     0x0000209f      0x6ad net/libnet.a(nfs.o)
 .debug_loc     0x0000274c      0xc12 drivers/mmc/libmmc.a(mmc.o)
 .debug_loc     0x0000335e      0x3aa drivers/mmc/libmmc.a(s3c_hsmmc.o)
 .debug_loc     0x00003708       0x1f drivers/mtd/nand/libnand.a(nand.o)
 .debug_loc     0x00003727     0x2411 drivers/mtd/nand/libnand.a(nand_base.o)
 .debug_loc     0x00005b38      0x182 drivers/mtd/nand/libnand.a(nand_ecc.o)
 .debug_loc     0x00005cba     0x1238 drivers/mtd/nand/libnand.a(nand_bbt.o)
 .debug_loc     0x00006ef2      0x501 drivers/net/libnet.a(dm9000x.o)
 .debug_loc     0x000073f3      0xb88 common/libcommon.a(main.o)
 .debug_loc     0x00007f7b      0x1e5 common/libcommon.a(cmd_autoscript.o)
 .debug_loc     0x00008160       0xdb common/libcommon.a(cmd_bdinfo.o)
 .debug_loc     0x0000823b      0x80f common/libcommon.a(image.o)
 .debug_loc     0x00008a4a      0x149 common/libcommon.a(cmd_boot.o)
 .debug_loc     0x00008b93      0x933 common/libcommon.a(cmd_bootm.o)
 .debug_loc     0x000094c6      0x1c3 common/libcommon.a(cmd_cache.o)
 .debug_loc     0x00009689       0x77 common/libcommon.a(cmd_console.o)
 .debug_loc     0x00009700      0x2c1 common/libcommon.a(cmd_date.o)
 .debug_loc     0x000099c1      0x31b common/libcommon.a(cmd_elf.o)
 .debug_loc     0x00009cdc      0x5a3 common/libcommon.a(cmd_ext2.o)
 .debug_loc     0x0000a27f      0x3de common/libcommon.a(cmd_fat.o)
 .debug_loc     0x0000a65d      0x5dd common/libcommon.a(cmd_flash.o)
 .debug_loc     0x0000ac3a      0x370 common/libcommon.a(cmd_itest.o)
 .debug_loc     0x0000afaa      0x906 common/libcommon.a(cmd_load.o)
 .debug_loc     0x0000b8b0      0xd17 common/libcommon.a(cmd_mem.o)
 .debug_loc     0x0000c5c7       0x8c common/libcommon.a(cmd_misc.o)
 .debug_loc     0x0000c653      0x442 common/libcommon.a(cmd_mmc.o)
 .debug_loc     0x0000ca95      0x9ba common/libcommon.a(cmd_nand.o)
 .debug_loc     0x0000d44f      0x34d common/libcommon.a(cmd_net.o)
 .debug_loc     0x0000d79c      0x8e0 common/libcommon.a(cmd_nvedit.o)
 .debug_loc     0x0000e07c       0x13 common/libcommon.a(cmd_reginfo.o)
 .debug_loc     0x0000e08f       0xc3 common/libcommon.a(cmd_usbd.o)
 .debug_loc     0x0000e152      0x171 common/libcommon.a(cmd_ximg.o)
 .debug_loc     0x0000e2c3      0x667 common/libcommon.a(command.o)
 .debug_loc     0x0000e92a      0x4d7 common/libcommon.a(console.o)
 .debug_loc     0x0000ee01       0x87 common/libcommon.a(devices.o)
 .debug_loc     0x0000ee88     0x10c3 common/libcommon.a(dlmalloc.o)
 .debug_loc     0x0000ff4b       0xff common/libcommon.a(env_common.o)
 .debug_loc     0x0001004a       0x1f common/libcommon.a(exports.o)
 .debug_loc     0x00010069      0x345 common/libcommon.a(flash.o)
 .debug_loc     0x000103ae     0x1204 common/libcommon.a(hush.o)
 .debug_loc     0x000115b2      0x352 common/libcommon.a(lists.o)
 .debug_loc     0x00011904      0x21c common/libcommon.a(s_record.o)
 .debug_loc     0x00011b20     0x1211 common/libcommon.a(usb.o)
 .debug_loc     0x00012d31      0x5c9 common/libcommon.a(xyzModem.o)
 .debug_loc     0x000132fa      0x326 common/libcommon.a(cmd_movi.o)
 .debug_loc     0x00013620       0x6b common/libcommon.a(cmd_lcd.o)
 .debug_loc     0x0001368b      0xa5f common/libcommon.a(cmd_fastboot.o)
 .debug_loc     0x000140ea      0x754 common/libcommon.a(cmd_mmc_fdisk.o)
 .debug_loc     0x0001483e      0x4cc common/libcommon.a(env_auto.o)
 .debug_loc     0x00014d0a      0x181 common/libcommon.a(gunzip.o)
 .debug_loc     0x00014e8b       0x32 common/libcommon.a(crc16.o)
 .debug_loc     0x00014ebd       0x5c board/samsung/smdk6450/libsmdk6450.a(smdk6450.o)
 .debug_loc     0x00014f19      0x4a0 board/samsung/smdk6450/libsmdk6450.a(flash.o)
 .debug_loc     0x000153b9      0x204 lib_generic/libgeneric.a(crc32.o)
 .debug_loc     0x000155bd      0x17a lib_generic/libgeneric.a(display_options.o)
 .debug_loc     0x00015737      0x5f5 lib_generic/libgeneric.a(lmb.o)
 .debug_loc     0x00015d2c      0x57b lib_generic/libgeneric.a(string.o)
 .debug_loc     0x000162a7      0x5f7 lib_generic/libgeneric.a(vsprintf.o)
 .debug_loc     0x0001689e     0x1e2c lib_generic/libgeneric.a(zlib.o)
 .debug_loc     0x000186ca      0x481 cpu/s5p645x/libs5p645x.a(usb_ohci.o)
 .debug_loc     0x00018b4b      0x858 cpu/s5p645x/libs5p645x.a(nand.o)
 .debug_loc     0x000193a3      0x769 cpu/s5p645x/libs5p645x.a(usbd-otg-hs.o)
 .debug_loc     0x00019b0c      0x934 cpu/s5p645x/libs5p645x.a(fastboot.o)
 .debug_loc     0x0001a440      0x1ee lib_arm/libarm.a(bootm.o)
 .debug_loc     0x0001a62e      0xe29 fs/fat/libfat.a(fat.o)
 .debug_loc     0x0001b457      0xfbe fs/ext2/libext2fs.a(ext2fs.o)
 .debug_loc     0x0001c415      0x1a6 fs/ext2/libext2fs.a(dev.o)
 .debug_loc     0x0001c5bb      0x1db disk/libdisk.a(part.o)
 .debug_loc     0x0001c796      0x366 disk/libdisk.a(part_dos.o)
 .debug_loc     0x0001cafc      0xa31 drivers/mtd/nand/libnand.a(nand_util.o)
 .debug_loc     0x0001d52d      0x180 drivers/rtc/librtc.a(date.o)
 .debug_loc     0x0001d6ad       0xec drivers/rtc/librtc.a(s5p64xx_rtc.o)
 .debug_loc     0x0001d799       0xaa lib_generic/libgeneric.a(div64.o)

.debug_pubnames
                0x00000000     0x46d3
 .debug_pubnames
                0x00000000       0x50 cpu/s5p645x/nand_cp.o
 .debug_pubnames
                0x00000050       0x74 cpu/s5p645x/movi.o
 .debug_pubnames
                0x000000c4      0x196 cpu/s5p645x/libs5p645x.a(interrupts.o)
 .debug_pubnames
                0x0000025a      0x109 cpu/s5p645x/libs5p645x.a(cpu.o)
 .debug_pubnames
                0x00000363       0x5c cpu/s5p645x/libs5p645x.a(setup_hsmmc.o)
 .debug_pubnames
                0x000003bf       0x74 cpu/s5p645x/libs5p645x.a(serial.o)
 .debug_pubnames
                0x00000433       0x78 cpu/s5p645x/s5p6450/libs5p6450.a(speed.o)
 .debug_pubnames
                0x000004ab      0x128 lib_arm/libarm.a(board.o)
 .debug_pubnames
                0x000005d3      0x3f9 net/libnet.a(net.o)
 .debug_pubnames
                0x000009cc       0x20 net/libnet.a(tftp.o)
 .debug_pubnames
                0x000009ec       0x82 net/libnet.a(bootp.o)
 .debug_pubnames
                0x00000a6e       0x2e net/libnet.a(rarp.o)
 .debug_pubnames
                0x00000a9c       0x25 net/libnet.a(eth.o)
 .debug_pubnames
                0x00000ac1       0x1f net/libnet.a(nfs.o)
 .debug_pubnames
                0x00000ae0      0x1ed drivers/mmc/libmmc.a(mmc.o)
 .debug_pubnames
                0x00000ccd       0x4e drivers/mmc/libmmc.a(s3c_hsmmc.o)
 .debug_pubnames
                0x00000d1b       0x43 drivers/mtd/nand/libnand.a(nand.o)
 .debug_pubnames
                0x00000d5e       0x8e drivers/mtd/nand/libnand.a(nand_base.o)
 .debug_pubnames
                0x00000dec       0x38 drivers/mtd/nand/libnand.a(nand_ids.o)
 .debug_pubnames
                0x00000e24       0x3f drivers/mtd/nand/libnand.a(nand_ecc.o)
 .debug_pubnames
                0x00000e63       0x60 drivers/mtd/nand/libnand.a(nand_bbt.o)
 .debug_pubnames
                0x00000ec3       0x6b drivers/net/libnet.a(dm9000x.o)
 .debug_pubnames
                0x00000f2e       0xcd common/libcommon.a(main.o)
 .debug_pubnames
                0x00000ffb       0x4c common/libcommon.a(cmd_autoscript.o)
 .debug_pubnames
                0x00001047       0x3f common/libcommon.a(cmd_bdinfo.o)
 .debug_pubnames
                0x00001086      0x1e6 common/libcommon.a(image.o)
 .debug_pubnames
                0x0000126c       0x6a common/libcommon.a(cmd_boot.o)
 .debug_pubnames
                0x000012d6       0xed common/libcommon.a(cmd_bootm.o)
 .debug_pubnames
                0x000013c3       0x5e common/libcommon.a(cmd_cache.o)
 .debug_pubnames
                0x00001421       0x3a common/libcommon.a(cmd_console.o)
 .debug_pubnames
                0x0000145b       0x54 common/libcommon.a(cmd_date.o)
 .debug_pubnames
                0x000014af       0x9b common/libcommon.a(cmd_elf.o)
 .debug_pubnames
                0x0000154a       0xcf common/libcommon.a(cmd_ext2.o)
 .debug_pubnames
                0x00001619       0xba common/libcommon.a(cmd_fat.o)
 .debug_pubnames
                0x000016d3       0xb2 common/libcommon.a(cmd_flash.o)
 .debug_pubnames
                0x00001785       0x53 common/libcommon.a(cmd_itest.o)
 .debug_pubnames
                0x000017d8      0x1bd common/libcommon.a(cmd_load.o)
 .debug_pubnames
                0x00001995      0x1e7 common/libcommon.a(cmd_mem.o)
 .debug_pubnames
                0x00001b7c       0x36 common/libcommon.a(cmd_misc.o)
 .debug_pubnames
                0x00001bb2       0x5d common/libcommon.a(cmd_mmc.o)
 .debug_pubnames
                0x00001c0f       0x5b common/libcommon.a(cmd_nand.o)
 .debug_pubnames
                0x00001c6a       0xe8 common/libcommon.a(cmd_net.o)
 .debug_pubnames
                0x00001d52       0xe5 common/libcommon.a(cmd_nvedit.o)
 .debug_pubnames
                0x00001e37       0x3a common/libcommon.a(cmd_reginfo.o)
 .debug_pubnames
                0x00001e71       0x37 common/libcommon.a(cmd_usbd.o)
 .debug_pubnames
                0x00001ea8       0x3e common/libcommon.a(cmd_ximg.o)
 .debug_pubnames
                0x00001ee6       0xee common/libcommon.a(command.o)
 .debug_pubnames
                0x00001fd4      0x115 common/libcommon.a(console.o)
 .debug_pubnames
                0x000020e9       0x7d common/libcommon.a(devices.o)
 .debug_pubnames
                0x00002166       0xba common/libcommon.a(dlmalloc.o)
 .debug_pubnames
                0x00002220       0xc0 common/libcommon.a(env_common.o)
 .debug_pubnames
                0x000022e0       0x3c common/libcommon.a(exports.o)
 .debug_pubnames
                0x0000231c       0x53 common/libcommon.a(flash.o)
 .debug_pubnames
                0x0000236f       0xcf common/libcommon.a(hush.o)
 .debug_pubnames
                0x0000243e      0x116 common/libcommon.a(lists.o)
 .debug_pubnames
                0x00002554       0x22 common/libcommon.a(s_record.o)
 .debug_pubnames
                0x00002576      0x339 common/libcommon.a(usb.o)
 .debug_pubnames
                0x000028af       0xd5 common/libcommon.a(xyzModem.o)
 .debug_pubnames
                0x00002984       0x61 common/libcommon.a(cmd_movi.o)
 .debug_pubnames
                0x000029e5       0x37 common/libcommon.a(cmd_lcd.o)
 .debug_pubnames
                0x00002a1c       0xf1 common/libcommon.a(cmd_fastboot.o)
 .debug_pubnames
                0x00002b0d      0x145 common/libcommon.a(cmd_mmc_fdisk.o)
 .debug_pubnames
                0x00002c52      0x14d common/libcommon.a(env_auto.o)
 .debug_pubnames
                0x00002d9f       0x32 common/libcommon.a(gunzip.o)
 .debug_pubnames
                0x00002dd1       0x20 common/libcommon.a(crc16.o)
 .debug_pubnames
                0x00002df1       0x6b board/samsung/smdk6450/libsmdk6450.a(smdk6450.o)
 .debug_pubnames
                0x00002e5c       0x64 board/samsung/smdk6450/libsmdk6450.a(flash.o)
 .debug_pubnames
                0x00002ec0       0x3b lib_generic/libgeneric.a(crc32.o)
 .debug_pubnames
                0x00002efb       0x1d lib_generic/libgeneric.a(ctype.o)
 .debug_pubnames
                0x00002f18       0x46 lib_generic/libgeneric.a(display_options.o)
 .debug_pubnames
                0x00002f5e       0xbb lib_generic/libgeneric.a(lmb.o)
 .debug_pubnames
                0x00003019      0x130 lib_generic/libgeneric.a(string.o)
 .debug_pubnames
                0x00003149       0x5a lib_generic/libgeneric.a(vsprintf.o)
 .debug_pubnames
                0x000031a3       0xab lib_generic/libgeneric.a(zlib.o)
 .debug_pubnames
                0x0000324e      0x117 cpu/s5p645x/libs5p645x.a(usb_ohci.o)
 .debug_pubnames
                0x00003365       0x53 cpu/s5p645x/libs5p645x.a(nand.o)
 .debug_pubnames
                0x000033b8      0x624 cpu/s5p645x/libs5p645x.a(usbd-otg-hs.o)
 .debug_pubnames
                0x000039dc      0x81e cpu/s5p645x/libs5p645x.a(fastboot.o)
 .debug_pubnames
                0x000041fa       0x47 lib_arm/libarm.a(bootm.o)
 .debug_pubnames
                0x00004241       0x22 lib_arm/libarm.a(cache.o)
 .debug_pubnames
                0x00004263       0xdd fs/fat/libfat.a(fat.o)
 .debug_pubnames
                0x00004340      0x189 fs/ext2/libext2fs.a(ext2fs.o)
 .debug_pubnames
                0x000044c9       0x3c fs/ext2/libext2fs.a(dev.o)
 .debug_pubnames
                0x00004505       0x67 disk/libdisk.a(part.o)
 .debug_pubnames
                0x0000456c       0x52 disk/libdisk.a(part_dos.o)
 .debug_pubnames
                0x000045be       0x84 drivers/mtd/nand/libnand.a(nand_util.o)
 .debug_pubnames
                0x00004642       0x38 drivers/rtc/librtc.a(date.o)
 .debug_pubnames
                0x0000467a       0x38 drivers/rtc/librtc.a(s5p64xx_rtc.o)
 .debug_pubnames
                0x000046b2       0x21 lib_generic/libgeneric.a(div64.o)

.debug_ranges   0x00000000     0x2d30
 .debug_ranges  0x00000000       0x80 cpu/s5p645x/nand_cp.o
 .debug_ranges  0x00000080       0x18 cpu/s5p645x/libs5p645x.a(interrupts.o)
 .debug_ranges  0x00000098       0x18 lib_arm/libarm.a(board.o)
 .debug_ranges  0x000000b0       0xa8 net/libnet.a(net.o)
 .debug_ranges  0x00000158       0x30 net/libnet.a(tftp.o)
 .debug_ranges  0x00000188       0xa8 net/libnet.a(bootp.o)
 .debug_ranges  0x00000230      0x1e0 net/libnet.a(nfs.o)
 .debug_ranges  0x00000410       0xc8 drivers/mmc/libmmc.a(mmc.o)
 .debug_ranges  0x000004d8       0x98 drivers/mmc/libmmc.a(s3c_hsmmc.o)
 .debug_ranges  0x00000570       0x18 drivers/mtd/nand/libnand.a(nand.o)
 .debug_ranges  0x00000588      0x240 drivers/mtd/nand/libnand.a(nand_base.o)
 .debug_ranges  0x000007c8      0x1c0 drivers/mtd/nand/libnand.a(nand_bbt.o)
 .debug_ranges  0x00000988      0x628 drivers/net/libnet.a(dm9000x.o)
 .debug_ranges  0x00000fb0      0x1b8 common/libcommon.a(main.o)
 .debug_ranges  0x00001168       0x30 common/libcommon.a(cmd_autoscript.o)
 .debug_ranges  0x00001198       0xa0 common/libcommon.a(image.o)
 .debug_ranges  0x00001238      0x168 common/libcommon.a(cmd_bootm.o)
 .debug_ranges  0x000013a0       0x18 common/libcommon.a(cmd_console.o)
 .debug_ranges  0x000013b8      0x310 common/libcommon.a(cmd_load.o)
 .debug_ranges  0x000016c8       0x20 common/libcommon.a(cmd_mem.o)
 .debug_ranges  0x000016e8       0x18 common/libcommon.a(cmd_mmc.o)
 .debug_ranges  0x00001700      0x128 common/libcommon.a(cmd_nand.o)
 .debug_ranges  0x00001828       0x68 common/libcommon.a(cmd_nvedit.o)
 .debug_ranges  0x00001890       0x50 common/libcommon.a(command.o)
 .debug_ranges  0x000018e0       0x40 common/libcommon.a(console.o)
 .debug_ranges  0x00001920       0x58 common/libcommon.a(dlmalloc.o)
 .debug_ranges  0x00001978       0x18 common/libcommon.a(env_common.o)
 .debug_ranges  0x00001990       0x60 common/libcommon.a(flash.o)
 .debug_ranges  0x000019f0      0x3b8 common/libcommon.a(hush.o)
 .debug_ranges  0x00001da8       0x98 common/libcommon.a(usb.o)
 .debug_ranges  0x00001e40       0x58 common/libcommon.a(cmd_fastboot.o)
 .debug_ranges  0x00001e98       0x20 board/samsung/smdk6450/libsmdk6450.a(smdk6450.o)
 .debug_ranges  0x00001eb8       0x18 board/samsung/smdk6450/libsmdk6450.a(flash.o)
 .debug_ranges  0x00001ed0       0xa0 lib_generic/libgeneric.a(lmb.o)
 .debug_ranges  0x00001f70       0x18 lib_generic/libgeneric.a(vsprintf.o)
 .debug_ranges  0x00001f88      0x4b8 lib_generic/libgeneric.a(zlib.o)
 .debug_ranges  0x00002440       0x68 cpu/s5p645x/libs5p645x.a(usb_ohci.o)
 .debug_ranges  0x000024a8       0x30 cpu/s5p645x/libs5p645x.a(nand.o)
 .debug_ranges  0x000024d8       0xe0 cpu/s5p645x/libs5p645x.a(usbd-otg-hs.o)
 .debug_ranges  0x000025b8      0x128 cpu/s5p645x/libs5p645x.a(fastboot.o)
 .debug_ranges  0x000026e0       0xe0 lib_arm/libarm.a(bootm.o)
 .debug_ranges  0x000027c0      0x270 fs/fat/libfat.a(fat.o)
 .debug_ranges  0x00002a30      0x278 fs/ext2/libext2fs.a(ext2fs.o)
 .debug_ranges  0x00002ca8       0x88 drivers/mtd/nand/libnand.a(nand_util.o)

.debug_str      0x00000000     0xa156
 .debug_str     0x00000000      0x124 cpu/s5p645x/nand_cp.o
                                0x177 (size before relaxing)
 .debug_str     0x00000124       0xdb cpu/s5p645x/movi.o
                                0x1da (size before relaxing)
 .debug_str     0x000001ff      0x1cf cpu/s5p645x/libs5p645x.a(interrupts.o)
                                0x2ca (size before relaxing)
 .debug_str     0x000003ce      0x18e cpu/s5p645x/libs5p645x.a(cpu.o)
                                0x27f (size before relaxing)
 .debug_str     0x0000055c      0x1c3 cpu/s5p645x/libs5p645x.a(setup_hsmmc.o)
                                0x332 (size before relaxing)
 .debug_str     0x0000071f      0x14e cpu/s5p645x/libs5p645x.a(serial.o)
                                0x2a3 (size before relaxing)
 .debug_str     0x0000086d       0xb7 cpu/s5p645x/s5p6450/libs5p6450.a(speed.o)
                                0x157 (size before relaxing)
 .debug_str     0x00000924      0x203 lib_arm/libarm.a(board.o)
                                0x370 (size before relaxing)
 .debug_str     0x00000b27      0x5da net/libnet.a(net.o)
                                0x7ce (size before relaxing)
 .debug_str     0x00001101      0x117 net/libnet.a(tftp.o)
                                0x2a0 (size before relaxing)
 .debug_str     0x00001218      0x24d net/libnet.a(bootp.o)
                                0x483 (size before relaxing)
 .debug_str     0x00001465       0x4c net/libnet.a(rarp.o)
                                0x191 (size before relaxing)
 .debug_str     0x000014b1       0x15 net/libnet.a(eth.o)
                                0x14b (size before relaxing)
 .debug_str     0x000014c6      0x255 net/libnet.a(nfs.o)
                                0x45a (size before relaxing)
 .debug_str     0x0000171b      0x33f drivers/mmc/libmmc.a(mmc.o)
                                0x6a6 (size before relaxing)
 .debug_str     0x00001a5a       0xd0 drivers/mmc/libmmc.a(s3c_hsmmc.o)
                                0x4a5 (size before relaxing)
 .debug_str     0x00001b2a      0x510 drivers/mtd/nand/libnand.a(nand.o)
                                0x7ce (size before relaxing)
 .debug_str     0x0000203a      0x59b drivers/mtd/nand/libnand.a(nand_base.o)
                                0xd7d (size before relaxing)
 .debug_str     0x000025d5        0xb drivers/mtd/nand/libnand.a(nand_ids.o)
                                0x13b (size before relaxing)
 .debug_str     0x000025e0       0x62 drivers/mtd/nand/libnand.a(nand_ecc.o)
                                0x4e9 (size before relaxing)
 .debug_str     0x00002642      0x27a drivers/mtd/nand/libnand.a(nand_bbt.o)
                                0xa2e (size before relaxing)
 .debug_str     0x000028bc      0x3d3 drivers/net/libnet.a(dm9000x.o)
                                0x52d (size before relaxing)
 .debug_str     0x00002c8f      0x214 common/libcommon.a(main.o)
                                0x3f8 (size before relaxing)
 .debug_str     0x00002ea3      0x125 common/libcommon.a(cmd_autoscript.o)
                                0x27a (size before relaxing)
 .debug_str     0x00002fc8       0x35 common/libcommon.a(cmd_bdinfo.o)
                                0x212 (size before relaxing)
 .debug_str     0x00002ffd      0x44d common/libcommon.a(image.o)
                                0x792 (size before relaxing)
 .debug_str     0x0000344a       0x4f common/libcommon.a(cmd_boot.o)
                                0x16f (size before relaxing)
 .debug_str     0x00003499      0x247 common/libcommon.a(cmd_bootm.o)
                                0x73c (size before relaxing)
 .debug_str     0x000036e0       0x4f common/libcommon.a(cmd_cache.o)
                                0x158 (size before relaxing)
 .debug_str     0x0000372f       0xc0 common/libcommon.a(cmd_console.o)
                                0x1ed (size before relaxing)
 .debug_str     0x000037ef       0x5a common/libcommon.a(cmd_date.o)
                                0x28b (size before relaxing)
 .debug_str     0x00003849      0x1ad common/libcommon.a(cmd_elf.o)
                                0x33f (size before relaxing)
 .debug_str     0x000039f6       0xf0 common/libcommon.a(cmd_ext2.o)
                                0x2d3 (size before relaxing)
 .debug_str     0x00003ae6       0x92 common/libcommon.a(cmd_fat.o)
                                0x255 (size before relaxing)
 .debug_str     0x00003b78      0x132 common/libcommon.a(cmd_flash.o)
                                0x2bb (size before relaxing)
 .debug_str     0x00003caa       0x79 common/libcommon.a(cmd_itest.o)
                                0x1a9 (size before relaxing)
 .debug_str     0x00003d23      0x3ef common/libcommon.a(cmd_load.o)
                                0x659 (size before relaxing)
 .debug_str     0x00004112      0x1e9 common/libcommon.a(cmd_mem.o)
                                0x370 (size before relaxing)
 .debug_str     0x000042fb       0x27 common/libcommon.a(cmd_misc.o)
                                0x142 (size before relaxing)
 .debug_str     0x00004322       0x9c common/libcommon.a(cmd_mmc.o)
                                0x373 (size before relaxing)
 .debug_str     0x000043be      0x185 common/libcommon.a(cmd_nand.o)
                                0xa4a (size before relaxing)
 .debug_str     0x00004543       0xd2 common/libcommon.a(cmd_net.o)
                                0x2c2 (size before relaxing)
 .debug_str     0x00004615       0xc8 common/libcommon.a(cmd_nvedit.o)
                                0x308 (size before relaxing)
 .debug_str     0x000046dd       0x2e common/libcommon.a(cmd_reginfo.o)
                                0x137 (size before relaxing)
 .debug_str     0x0000470b       0x66 common/libcommon.a(cmd_usbd.o)
                                0x16f (size before relaxing)
 .debug_str     0x00004771       0x2f common/libcommon.a(cmd_ximg.o)
                                0x263 (size before relaxing)
 .debug_str     0x000047a0      0x118 common/libcommon.a(command.o)
                                0x248 (size before relaxing)
 .debug_str     0x000048b8       0xf8 common/libcommon.a(console.o)
                                0x46a (size before relaxing)
 .debug_str     0x000049b0       0x44 common/libcommon.a(devices.o)
                                0x284 (size before relaxing)
 .debug_str     0x000049f4      0x294 common/libcommon.a(dlmalloc.o)
                                0x49f (size before relaxing)
 .debug_str     0x00004c88       0xb4 common/libcommon.a(env_common.o)
                                0x25f (size before relaxing)
 .debug_str     0x00004d3c       0x1f common/libcommon.a(exports.o)
                                0x294 (size before relaxing)
 .debug_str     0x00004d5b       0x46 common/libcommon.a(flash.o)
                                0x186 (size before relaxing)
 .debug_str     0x00004da1      0x4b8 common/libcommon.a(hush.o)
                                0x780 (size before relaxing)
 .debug_str     0x00005259      0x1d5 common/libcommon.a(lists.o)
                                0x311 (size before relaxing)
 .debug_str     0x0000542e       0x3a common/libcommon.a(s_record.o)
                                0x113 (size before relaxing)
 .debug_str     0x00005468      0x7dd common/libcommon.a(usb.o)
                                0x9ac (size before relaxing)
 .debug_str     0x00005c45      0x1a3 common/libcommon.a(xyzModem.o)
                                0x2d4 (size before relaxing)
 .debug_str     0x00005de8       0x4a common/libcommon.a(cmd_movi.o)
                                0x3bf (size before relaxing)
 .debug_str     0x00005e32       0x27 common/libcommon.a(cmd_lcd.o)
                                0x130 (size before relaxing)
 .debug_str     0x00005e59      0x3aa common/libcommon.a(cmd_fastboot.o)
                                0x7cd (size before relaxing)
 .debug_str     0x00006203      0x1ec common/libcommon.a(cmd_mmc_fdisk.o)
                                0x4fb (size before relaxing)
 .debug_str     0x000063ef      0x13e common/libcommon.a(env_auto.o)
                                0x758 (size before relaxing)
 .debug_str     0x0000652d       0xda common/libcommon.a(gunzip.o)
                                0x1b9 (size before relaxing)
 .debug_str     0x00006607       0x1c common/libcommon.a(crc16.o)
                                 0xee (size before relaxing)
 .debug_str     0x00006623       0x98 board/samsung/smdk6450/libsmdk6450.a(smdk6450.o)
                                0x200 (size before relaxing)
 .debug_str     0x000066bb       0x53 board/samsung/smdk6450/libsmdk6450.a(flash.o)
                                0x1cd (size before relaxing)
 .debug_str     0x0000670e       0x5f lib_generic/libgeneric.a(crc32.o)
                                0x119 (size before relaxing)
 .debug_str     0x0000676d        0x8 lib_generic/libgeneric.a(ctype.o)
                                 0x56 (size before relaxing)
 .debug_str     0x00006775       0x3f lib_generic/libgeneric.a(display_options.o)
                                0x17f (size before relaxing)
 .debug_str     0x000067b4      0x161 lib_generic/libgeneric.a(lmb.o)
                                0x2b5 (size before relaxing)
 .debug_str     0x00006915       0xc3 lib_generic/libgeneric.a(string.o)
                                0x1d1 (size before relaxing)
 .debug_str     0x000069d8       0x55 lib_generic/libgeneric.a(vsprintf.o)
                                0x1b1 (size before relaxing)
 .debug_str     0x00006a2d      0x3af lib_generic/libgeneric.a(zlib.o)
                                0x5b1 (size before relaxing)
 .debug_str     0x00006ddc      0x353 cpu/s5p645x/libs5p645x.a(usb_ohci.o)
                                0x84d (size before relaxing)
 .debug_str     0x0000712f      0x227 cpu/s5p645x/libs5p645x.a(nand.o)
                                0x9f7 (size before relaxing)
 .debug_str     0x00007356      0xdc0 cpu/s5p645x/libs5p645x.a(usbd-otg-hs.o)
                               0x116c (size before relaxing)
 .debug_str     0x00008116      0x768 cpu/s5p645x/libs5p645x.a(fastboot.o)
                               0x14cf (size before relaxing)
 .debug_str     0x0000887e      0x287 lib_arm/libarm.a(bootm.o)
                                0x630 (size before relaxing)
 .debug_str     0x00008b05       0x1a lib_arm/libarm.a(cache.o)
                                 0xe0 (size before relaxing)
 .debug_str     0x00008b1f      0x51f fs/fat/libfat.a(fat.o)
                                0x779 (size before relaxing)
 .debug_str     0x0000903e      0xaa9 fs/ext2/libext2fs.a(ext2fs.o)
                                0xd9e (size before relaxing)
 .debug_str     0x00009ae7       0x6a fs/ext2/libext2fs.a(dev.o)
                                0x205 (size before relaxing)
 .debug_str     0x00009b51       0xb6 disk/libdisk.a(part.o)
                                0x2ef (size before relaxing)
 .debug_str     0x00009c07      0x13f disk/libdisk.a(part_dos.o)
                                0x2f0 (size before relaxing)
 .debug_str     0x00009d46      0x1ff drivers/mtd/nand/libnand.a(nand_util.o)
                                0xa92 (size before relaxing)
 .debug_str     0x00009f45       0x73 drivers/rtc/librtc.a(date.o)
                                0x168 (size before relaxing)
 .debug_str     0x00009fb8      0x18b drivers/rtc/librtc.a(s5p64xx_rtc.o)
                                0x2c0 (size before relaxing)
 .debug_str     0x0000a143       0x13 lib_generic/libgeneric.a(div64.o)
                                 0xfd (size before relaxing)

.comment        0x00000000      0x642
 .comment       0x00000000       0x12 cpu/s5p645x/nand_cp.o
 .comment       0x00000012       0x12 cpu/s5p645x/movi.o
 .comment       0x00000024       0x12 cpu/s5p645x/libs5p645x.a(interrupts.o)
 .comment       0x00000036       0x12 cpu/s5p645x/libs5p645x.a(cpu.o)
 .comment       0x00000048       0x12 cpu/s5p645x/libs5p645x.a(setup_hsmmc.o)
 .comment       0x0000005a       0x12 cpu/s5p645x/libs5p645x.a(serial.o)
 .comment       0x0000006c       0x12 cpu/s5p645x/s5p6450/libs5p6450.a(speed.o)
 .comment       0x0000007e       0x12 lib_arm/libarm.a(board.o)
 .comment       0x00000090       0x12 net/libnet.a(net.o)
 .comment       0x000000a2       0x12 net/libnet.a(tftp.o)
 .comment       0x000000b4       0x12 net/libnet.a(bootp.o)
 .comment       0x000000c6       0x12 net/libnet.a(rarp.o)
 .comment       0x000000d8       0x12 net/libnet.a(eth.o)
 .comment       0x000000ea       0x12 net/libnet.a(nfs.o)
 .comment       0x000000fc       0x12 drivers/mmc/libmmc.a(mmc.o)
 .comment       0x0000010e       0x12 drivers/mmc/libmmc.a(s3c_hsmmc.o)
 .comment       0x00000120       0x12 drivers/mtd/nand/libnand.a(nand.o)
 .comment       0x00000132       0x12 drivers/mtd/nand/libnand.a(nand_base.o)
 .comment       0x00000144       0x12 drivers/mtd/nand/libnand.a(nand_ids.o)
 .comment       0x00000156       0x12 drivers/mtd/nand/libnand.a(nand_ecc.o)
 .comment       0x00000168       0x12 drivers/mtd/nand/libnand.a(nand_bbt.o)
 .comment       0x0000017a       0x12 drivers/net/libnet.a(dm9000x.o)
 .comment       0x0000018c       0x12 common/libcommon.a(main.o)
 .comment       0x0000019e       0x12 common/libcommon.a(cmd_autoscript.o)
 .comment       0x000001b0       0x12 common/libcommon.a(cmd_bdinfo.o)
 .comment       0x000001c2       0x12 common/libcommon.a(image.o)
 .comment       0x000001d4       0x12 common/libcommon.a(cmd_boot.o)
 .comment       0x000001e6       0x12 common/libcommon.a(cmd_bootm.o)
 .comment       0x000001f8       0x12 common/libcommon.a(cmd_cache.o)
 .comment       0x0000020a       0x12 common/libcommon.a(cmd_console.o)
 .comment       0x0000021c       0x12 common/libcommon.a(cmd_date.o)
 .comment       0x0000022e       0x12 common/libcommon.a(cmd_elf.o)
 .comment       0x00000240       0x12 common/libcommon.a(cmd_ext2.o)
 .comment       0x00000252       0x12 common/libcommon.a(cmd_fat.o)
 .comment       0x00000264       0x12 common/libcommon.a(cmd_flash.o)
 .comment       0x00000276       0x12 common/libcommon.a(cmd_itest.o)
 .comment       0x00000288       0x12 common/libcommon.a(cmd_load.o)
 .comment       0x0000029a       0x12 common/libcommon.a(cmd_mem.o)
 .comment       0x000002ac       0x12 common/libcommon.a(cmd_misc.o)
 .comment       0x000002be       0x12 common/libcommon.a(cmd_mmc.o)
 .comment       0x000002d0       0x12 common/libcommon.a(cmd_nand.o)
 .comment       0x000002e2       0x12 common/libcommon.a(cmd_net.o)
 .comment       0x000002f4       0x12 common/libcommon.a(cmd_nvedit.o)
 .comment       0x00000306       0x12 common/libcommon.a(cmd_reginfo.o)
 .comment       0x00000318       0x12 common/libcommon.a(cmd_usbd.o)
 .comment       0x0000032a       0x12 common/libcommon.a(cmd_ximg.o)
 .comment       0x0000033c       0x12 common/libcommon.a(command.o)
 .comment       0x0000034e       0x12 common/libcommon.a(console.o)
 .comment       0x00000360       0x12 common/libcommon.a(devices.o)
 .comment       0x00000372       0x12 common/libcommon.a(dlmalloc.o)
 .comment       0x00000384       0x12 common/libcommon.a(env_common.o)
 .comment       0x00000396       0x12 common/libcommon.a(exports.o)
 .comment       0x000003a8       0x12 common/libcommon.a(flash.o)
 .comment       0x000003ba       0x12 common/libcommon.a(hush.o)
 .comment       0x000003cc       0x12 common/libcommon.a(lists.o)
 .comment       0x000003de       0x12 common/libcommon.a(s_record.o)
 .comment       0x000003f0       0x12 common/libcommon.a(usb.o)
 .comment       0x00000402       0x12 common/libcommon.a(xyzModem.o)
 .comment       0x00000414       0x12 common/libcommon.a(cmd_movi.o)
 .comment       0x00000426       0x12 common/libcommon.a(cmd_lcd.o)
 .comment       0x00000438       0x12 common/libcommon.a(cmd_fastboot.o)
 .comment       0x0000044a       0x12 common/libcommon.a(cmd_mmc_fdisk.o)
 .comment       0x0000045c       0x12 common/libcommon.a(env_auto.o)
 .comment       0x0000046e       0x12 common/libcommon.a(gunzip.o)
 .comment       0x00000480       0x12 common/libcommon.a(crc16.o)
 .comment       0x00000492       0x12 board/samsung/smdk6450/libsmdk6450.a(smdk6450.o)
 .comment       0x000004a4       0x12 board/samsung/smdk6450/libsmdk6450.a(flash.o)
 .comment       0x000004b6       0x12 lib_generic/libgeneric.a(crc32.o)
 .comment       0x000004c8       0x12 lib_generic/libgeneric.a(ctype.o)
 .comment       0x000004da       0x12 lib_generic/libgeneric.a(display_options.o)
 .comment       0x000004ec       0x12 lib_generic/libgeneric.a(lmb.o)
 .comment       0x000004fe       0x12 lib_generic/libgeneric.a(string.o)
 .comment       0x00000510       0x12 lib_generic/libgeneric.a(vsprintf.o)
 .comment       0x00000522       0x12 lib_generic/libgeneric.a(zlib.o)
 .comment       0x00000534       0x12 cpu/s5p645x/libs5p645x.a(usb_ohci.o)
 .comment       0x00000546       0x12 cpu/s5p645x/libs5p645x.a(nand.o)
 .comment       0x00000558       0x12 cpu/s5p645x/libs5p645x.a(usbd-otg-hs.o)
 .comment       0x0000056a       0x12 cpu/s5p645x/libs5p645x.a(fastboot.o)
 .comment       0x0000057c       0x12 lib_arm/libarm.a(bootm.o)
 .comment       0x0000058e       0x12 lib_arm/libarm.a(cache.o)
 .comment       0x000005a0       0x12 fs/fat/libfat.a(fat.o)
 .comment       0x000005b2       0x12 fs/ext2/libext2fs.a(ext2fs.o)
 .comment       0x000005c4       0x12 fs/ext2/libext2fs.a(dev.o)
 .comment       0x000005d6       0x12 disk/libdisk.a(part.o)
 .comment       0x000005e8       0x12 disk/libdisk.a(part_dos.o)
 .comment       0x000005fa       0x12 drivers/mtd/nand/libnand.a(nand_util.o)
 .comment       0x0000060c       0x12 drivers/rtc/librtc.a(date.o)
 .comment       0x0000061e       0x12 drivers/rtc/librtc.a(s5p64xx_rtc.o)
 .comment       0x00000630       0x12 lib_generic/libgeneric.a(div64.o)
